                              1 ;--------------------------------------------------------
                              2 ; File Created by SDCC : free open source ANSI-C Compiler
                              3 ; Version 3.8.0 #10562 (Linux)
                              4 ;--------------------------------------------------------
                              5 	.module _fsadd
                              6 	.optsdcc -mz80
                              7 	
                              8 ;--------------------------------------------------------
                              9 ; Public variables in this module
                             10 ;--------------------------------------------------------
                             11 	.globl ___fsadd
                             12 ;--------------------------------------------------------
                             13 ; special function registers
                             14 ;--------------------------------------------------------
                             15 ;--------------------------------------------------------
                             16 ; ram data
                             17 ;--------------------------------------------------------
                             18 	.area _DATA
                             19 ;--------------------------------------------------------
                             20 ; ram data
                             21 ;--------------------------------------------------------
                             22 	.area _INITIALIZED
                             23 ;--------------------------------------------------------
                             24 ; absolute external ram data
                             25 ;--------------------------------------------------------
                             26 	.area _DABS (ABS)
                             27 ;--------------------------------------------------------
                             28 ; global & static initialisations
                             29 ;--------------------------------------------------------
                             30 	.area _HOME
                             31 	.area _GSINIT
                             32 	.area _GSFINAL
                             33 	.area _GSINIT
                             34 ;--------------------------------------------------------
                             35 ; Home
                             36 ;--------------------------------------------------------
                             37 	.area _HOME
                     0000    38 	G$__fsadd$0$0	= .
                             39 	.globl	G$__fsadd$0$0
                     0000    40 	C$_fsadd.c$58$0_0$21	= .
                             41 	.globl	C$_fsadd.c$58$0_0$21
                             42 ;_fsadd.c:58: float __fsadd (float a1, float a2)
                             43 ;	---------------------------------
                             44 ; Function __fsadd
                             45 ; ---------------------------------
   0000                      46 ___fsadd::
   0000 DD E5         [15]   47 	push	ix
   0002 DD 21 00 00   [14]   48 	ld	ix,#0
   0006 DD 39         [15]   49 	add	ix,sp
   0008 21 E4 FF      [10]   50 	ld	hl, #-28
   000B 39            [11]   51 	add	hl, sp
   000C F9            [ 6]   52 	ld	sp, hl
                     000D    53 	C$_fsadd.c$66$1_0$21	= .
                             54 	.globl	C$_fsadd.c$66$1_0$21
                             55 ;_fsadd.c:66: pfl2 = (long _AUTOMEM *)&a2;
   000D 21 24 00      [10]   56 	ld	hl, #0x0024
   0010 39            [11]   57 	add	hl, sp
   0011 EB            [ 4]   58 	ex	de, hl
                     0012    59 	C$_fsadd.c$67$1_0$21	= .
                             60 	.globl	C$_fsadd.c$67$1_0$21
                             61 ;_fsadd.c:67: exp2 = EXP (*pfl2);
   0012 21 04 00      [10]   62 	ld	hl, #0x0004
   0015 39            [11]   63 	add	hl, sp
   0016 EB            [ 4]   64 	ex	de, hl
   0017 01 04 00      [10]   65 	ld	bc, #0x0004
   001A ED B0         [21]   66 	ldir
   001C 21 08 00      [10]   67 	ld	hl, #8
   001F 39            [11]   68 	add	hl, sp
   0020 EB            [ 4]   69 	ex	de, hl
   0021 21 04 00      [10]   70 	ld	hl, #4
   0024 39            [11]   71 	add	hl, sp
   0025 01 04 00      [10]   72 	ld	bc, #4
   0028 ED B0         [21]   73 	ldir
   002A DD 5E EE      [19]   74 	ld	e, -18 (ix)
   002D DD 56 EF      [19]   75 	ld	d, -17 (ix)
   0030 06 07         [ 7]   76 	ld	b, #0x07
   0032                      77 00240$:
   0032 CB 3A         [ 8]   78 	srl	d
   0034 CB 1B         [ 8]   79 	rr	e
   0036 10 FA         [13]   80 	djnz	00240$
   0038 DD 73 F2      [19]   81 	ld	-14 (ix), e
   003B DD 36 F3 00   [19]   82 	ld	-13 (ix), #0x00
                     003F    83 	C$_fsadd.c$68$1_0$21	= .
                             84 	.globl	C$_fsadd.c$68$1_0$21
                             85 ;_fsadd.c:68: mant2 = MANT (*pfl2) << 4;
   003F DD 4E E8      [19]   86 	ld	c, -24 (ix)
   0042 DD 46 E9      [19]   87 	ld	b, -23 (ix)
   0045 DD 5E EA      [19]   88 	ld	e, -22 (ix)
   0048 16 00         [ 7]   89 	ld	d, #0x00
   004A CB FB         [ 8]   90 	set	7, e
   004C DD 71 F8      [19]   91 	ld	-8 (ix), c
   004F DD 70 F9      [19]   92 	ld	-7 (ix), b
   0052 DD 73 FA      [19]   93 	ld	-6 (ix), e
   0055 DD 72 FB      [19]   94 	ld	-5 (ix), d
   0058 06 04         [ 7]   95 	ld	b, #0x04
   005A                      96 00242$:
   005A DD CB F8 26   [23]   97 	sla	-8 (ix)
   005E DD CB F9 16   [23]   98 	rl	-7 (ix)
   0062 DD CB FA 16   [23]   99 	rl	-6 (ix)
   0066 DD CB FB 16   [23]  100 	rl	-5 (ix)
   006A 10 EE         [13]  101 	djnz	00242$
                     006C   102 	C$_fsadd.c$69$1_0$21	= .
                            103 	.globl	C$_fsadd.c$69$1_0$21
                            104 ;_fsadd.c:69: if (SIGN (*pfl2))
   006C DD 7E EF      [19]  105 	ld	a, -17 (ix)
   006F CB 07         [ 8]  106 	rlc	a
   0071 E6 01         [ 7]  107 	and	a,#0x01
   0073 28 1F         [12]  108 	jr	Z,00102$
                     0075   109 	C$_fsadd.c$70$1_0$21	= .
                            110 	.globl	C$_fsadd.c$70$1_0$21
                            111 ;_fsadd.c:70: mant2 = -mant2;
   0075 AF            [ 4]  112 	xor	a, a
   0076 DD 96 F8      [19]  113 	sub	a, -8 (ix)
   0079 DD 77 F8      [19]  114 	ld	-8 (ix), a
   007C 3E 00         [ 7]  115 	ld	a, #0x00
   007E DD 9E F9      [19]  116 	sbc	a, -7 (ix)
   0081 DD 77 F9      [19]  117 	ld	-7 (ix), a
   0084 3E 00         [ 7]  118 	ld	a, #0x00
   0086 DD 9E FA      [19]  119 	sbc	a, -6 (ix)
   0089 DD 77 FA      [19]  120 	ld	-6 (ix), a
   008C 3E 00         [ 7]  121 	ld	a, #0x00
   008E DD 9E FB      [19]  122 	sbc	a, -5 (ix)
   0091 DD 77 FB      [19]  123 	ld	-5 (ix), a
   0094                     124 00102$:
                     0094   125 	C$_fsadd.c$72$1_0$21	= .
                            126 	.globl	C$_fsadd.c$72$1_0$21
                            127 ;_fsadd.c:72: if (!*pfl2)
   0094 DD 7E EB      [19]  128 	ld	a, -21 (ix)
   0097 DD B6 EA      [19]  129 	or	a, -22 (ix)
   009A DD B6 E9      [19]  130 	or	a, -23 (ix)
   009D DD B6 E8      [19]  131 	or	a, -24 (ix)
   00A0 20 0F         [12]  132 	jr	NZ,00104$
                     00A2   133 	C$_fsadd.c$73$1_0$21	= .
                            134 	.globl	C$_fsadd.c$73$1_0$21
                            135 ;_fsadd.c:73: return (a1);
   00A2 DD 6E 04      [19]  136 	ld	l, 4 (ix)
   00A5 DD 66 05      [19]  137 	ld	h, 5 (ix)
   00A8 DD 5E 06      [19]  138 	ld	e, 6 (ix)
   00AB DD 56 07      [19]  139 	ld	d, 7 (ix)
   00AE C3r65r04      [10]  140 	jp	00137$
   00B1                     141 00104$:
                     00B1   142 	C$_fsadd.c$75$1_0$21	= .
                            143 	.globl	C$_fsadd.c$75$1_0$21
                            144 ;_fsadd.c:75: pfl1 = (long _AUTOMEM *)&a1;
   00B1 21 20 00      [10]  145 	ld	hl, #0x0020
   00B4 39            [11]  146 	add	hl, sp
                     00B5   147 	C$_fsadd.c$76$1_0$21	= .
                            148 	.globl	C$_fsadd.c$76$1_0$21
                            149 ;_fsadd.c:76: exp1 = EXP (*pfl1);
   00B5 DD 75 F6      [19]  150 	ld	-10 (ix), l
   00B8 DD 74 F7      [19]  151 	ld	-9 (ix), h
   00BB 4E            [ 7]  152 	ld	c, (hl)
   00BC 23            [ 6]  153 	inc	hl
   00BD 46            [ 7]  154 	ld	b, (hl)
   00BE 23            [ 6]  155 	inc	hl
   00BF 5E            [ 7]  156 	ld	e, (hl)
   00C0 23            [ 6]  157 	inc	hl
   00C1 56            [ 7]  158 	ld	d, (hl)
   00C2 DD 71 EC      [19]  159 	ld	-20 (ix), c
   00C5 DD 70 ED      [19]  160 	ld	-19 (ix), b
   00C8 DD 73 EE      [19]  161 	ld	-18 (ix), e
   00CB DD 72 EF      [19]  162 	ld	-17 (ix), d
   00CE DD 7E EE      [19]  163 	ld	a, -18 (ix)
   00D1 DD 77 E8      [19]  164 	ld	-24 (ix), a
   00D4 DD 7E EF      [19]  165 	ld	a, -17 (ix)
   00D7 DD 77 E9      [19]  166 	ld	-23 (ix), a
   00DA DD 36 EA 00   [19]  167 	ld	-22 (ix), #0x00
   00DE DD 36 EB 00   [19]  168 	ld	-21 (ix), #0x00
   00E2 3E 07         [ 7]  169 	ld	a, #0x07
   00E4                     170 00244$:
   00E4 DD CB E9 3E   [23]  171 	srl	-23 (ix)
   00E8 DD CB E8 1E   [23]  172 	rr	-24 (ix)
   00EC 3D            [ 4]  173 	dec	a
   00ED 20 F5         [12]  174 	jr	NZ, 00244$
   00EF DD 6E E8      [19]  175 	ld	l, -24 (ix)
   00F2 DD 75 E8      [19]  176 	ld	-24 (ix), l
   00F5 DD 36 E9 00   [19]  177 	ld	-23 (ix), #0x00
                     00F9   178 	C$_fsadd.c$77$1_0$21	= .
                            179 	.globl	C$_fsadd.c$77$1_0$21
                            180 ;_fsadd.c:77: mant1 = MANT (*pfl1) << 4;
   00F9 DD 71 E4      [19]  181 	ld	-28 (ix), c
   00FC DD 70 E5      [19]  182 	ld	-27 (ix), b
   00FF DD 73 E6      [19]  183 	ld	-26 (ix), e
   0102 DD 36 E7 00   [19]  184 	ld	-25 (ix), #0x00
   0106 DD 7E E4      [19]  185 	ld	a, -28 (ix)
   0109 DD 77 E4      [19]  186 	ld	-28 (ix), a
   010C DD 7E E5      [19]  187 	ld	a, -27 (ix)
   010F DD 77 E5      [19]  188 	ld	-27 (ix), a
   0112 DD 7E E6      [19]  189 	ld	a, -26 (ix)
   0115 F6 80         [ 7]  190 	or	a, #0x80
   0117 DD 77 E6      [19]  191 	ld	-26 (ix), a
   011A DD 7E E7      [19]  192 	ld	a, -25 (ix)
   011D DD 77 E7      [19]  193 	ld	-25 (ix), a
   0120 3E 04         [ 7]  194 	ld	a, #0x04
   0122                     195 00246$:
   0122 DD CB E4 26   [23]  196 	sla	-28 (ix)
   0126 DD CB E5 16   [23]  197 	rl	-27 (ix)
   012A DD CB E6 16   [23]  198 	rl	-26 (ix)
   012E DD CB E7 16   [23]  199 	rl	-25 (ix)
   0132 3D            [ 4]  200 	dec	a
   0133 20 ED         [12]  201 	jr	NZ,00246$
                     0135   202 	C$_fsadd.c$78$1_0$21	= .
                            203 	.globl	C$_fsadd.c$78$1_0$21
                            204 ;_fsadd.c:78: if (SIGN(*pfl1))
   0135 DD 7E EF      [19]  205 	ld	a, -17 (ix)
   0138 CB 07         [ 8]  206 	rlc	a
   013A E6 01         [ 7]  207 	and	a,#0x01
   013C 28 23         [12]  208 	jr	Z,00108$
                     013E   209 	C$_fsadd.c$79$1_0$21	= .
                            210 	.globl	C$_fsadd.c$79$1_0$21
                            211 ;_fsadd.c:79: if (*pfl1 & 0x80000000)
   013E CB 7A         [ 8]  212 	bit	7, d
   0140 28 1F         [12]  213 	jr	Z,00108$
                     0142   214 	C$_fsadd.c$80$1_0$21	= .
                            215 	.globl	C$_fsadd.c$80$1_0$21
                            216 ;_fsadd.c:80: mant1 = -mant1;
   0142 AF            [ 4]  217 	xor	a, a
   0143 DD 96 E4      [19]  218 	sub	a, -28 (ix)
   0146 DD 77 E4      [19]  219 	ld	-28 (ix), a
   0149 3E 00         [ 7]  220 	ld	a, #0x00
   014B DD 9E E5      [19]  221 	sbc	a, -27 (ix)
   014E DD 77 E5      [19]  222 	ld	-27 (ix), a
   0151 3E 00         [ 7]  223 	ld	a, #0x00
   0153 DD 9E E6      [19]  224 	sbc	a, -26 (ix)
   0156 DD 77 E6      [19]  225 	ld	-26 (ix), a
   0159 3E 00         [ 7]  226 	ld	a, #0x00
   015B DD 9E E7      [19]  227 	sbc	a, -25 (ix)
   015E DD 77 E7      [19]  228 	ld	-25 (ix), a
   0161                     229 00108$:
                     0161   230 	C$_fsadd.c$82$1_0$21	= .
                            231 	.globl	C$_fsadd.c$82$1_0$21
                            232 ;_fsadd.c:82: if (!*pfl1)
   0161 7A            [ 4]  233 	ld	a, d
   0162 B3            [ 4]  234 	or	a, e
   0163 B0            [ 4]  235 	or	a, b
   0164 B1            [ 4]  236 	or	a, c
   0165 20 0F         [12]  237 	jr	NZ,00110$
                     0167   238 	C$_fsadd.c$83$1_0$21	= .
                            239 	.globl	C$_fsadd.c$83$1_0$21
                            240 ;_fsadd.c:83: return (a2);
   0167 DD 6E 08      [19]  241 	ld	l, 8 (ix)
   016A DD 66 09      [19]  242 	ld	h, 9 (ix)
   016D DD 5E 0A      [19]  243 	ld	e, 10 (ix)
   0170 DD 56 0B      [19]  244 	ld	d, 11 (ix)
   0173 C3r65r04      [10]  245 	jp	00137$
   0176                     246 00110$:
                     0176   247 	C$_fsadd.c$85$1_0$21	= .
                            248 	.globl	C$_fsadd.c$85$1_0$21
                            249 ;_fsadd.c:85: expd = exp1 - exp2;
   0176 DD 7E E8      [19]  250 	ld	a, -24 (ix)
   0179 DD 96 F2      [19]  251 	sub	a, -14 (ix)
   017C DD 77 EC      [19]  252 	ld	-20 (ix), a
   017F DD 7E E9      [19]  253 	ld	a, -23 (ix)
   0182 DD 9E F3      [19]  254 	sbc	a, -13 (ix)
   0185 DD 77 ED      [19]  255 	ld	-19 (ix), a
                     0188   256 	C$_fsadd.c$86$1_0$21	= .
                            257 	.globl	C$_fsadd.c$86$1_0$21
                            258 ;_fsadd.c:86: if (expd > 25)
   0188 3E 19         [ 7]  259 	ld	a, #0x19
   018A DD BE EC      [19]  260 	cp	a, -20 (ix)
   018D 3E 00         [ 7]  261 	ld	a, #0x00
   018F DD 9E ED      [19]  262 	sbc	a, -19 (ix)
   0192 E2r97r01      [10]  263 	jp	PO, 00249$
   0195 EE 80         [ 7]  264 	xor	a, #0x80
   0197                     265 00249$:
   0197 F2rA9r01      [10]  266 	jp	P, 00112$
                     019A   267 	C$_fsadd.c$87$1_0$21	= .
                            268 	.globl	C$_fsadd.c$87$1_0$21
                            269 ;_fsadd.c:87: return (a1);
   019A DD 6E 04      [19]  270 	ld	l, 4 (ix)
   019D DD 66 05      [19]  271 	ld	h, 5 (ix)
   01A0 DD 5E 06      [19]  272 	ld	e, 6 (ix)
   01A3 DD 56 07      [19]  273 	ld	d, 7 (ix)
   01A6 C3r65r04      [10]  274 	jp	00137$
   01A9                     275 00112$:
                     01A9   276 	C$_fsadd.c$88$1_0$21	= .
                            277 	.globl	C$_fsadd.c$88$1_0$21
                            278 ;_fsadd.c:88: if (expd < -25)
   01A9 DD 7E EC      [19]  279 	ld	a, -20 (ix)
   01AC D6 E7         [ 7]  280 	sub	a, #0xe7
   01AE DD 7E ED      [19]  281 	ld	a, -19 (ix)
   01B1 17            [ 4]  282 	rla
   01B2 3F            [ 4]  283 	ccf
   01B3 1F            [ 4]  284 	rra
   01B4 DE 7F         [ 7]  285 	sbc	a, #0x7f
   01B6 30 0F         [12]  286 	jr	NC,00114$
                     01B8   287 	C$_fsadd.c$89$1_0$21	= .
                            288 	.globl	C$_fsadd.c$89$1_0$21
                            289 ;_fsadd.c:89: return (a2);
   01B8 DD 6E 08      [19]  290 	ld	l, 8 (ix)
   01BB DD 66 09      [19]  291 	ld	h, 9 (ix)
   01BE DD 5E 0A      [19]  292 	ld	e, 10 (ix)
   01C1 DD 56 0B      [19]  293 	ld	d, 11 (ix)
   01C4 C3r65r04      [10]  294 	jp	00137$
   01C7                     295 00114$:
                     01C7   296 	C$_fsadd.c$91$1_0$21	= .
                            297 	.globl	C$_fsadd.c$91$1_0$21
                            298 ;_fsadd.c:91: if (expd < 0)
   01C7 DD CB ED 7E   [20]  299 	bit	7, -19 (ix)
   01CB 28 31         [12]  300 	jr	Z,00116$
                     01CD   301 	C$_fsadd.c$93$2_0$22	= .
                            302 	.globl	C$_fsadd.c$93$2_0$22
                            303 ;_fsadd.c:93: expd = -expd;
   01CD AF            [ 4]  304 	xor	a, a
   01CE DD 96 EC      [19]  305 	sub	a, -20 (ix)
   01D1 4F            [ 4]  306 	ld	c, a
   01D2 3E 00         [ 7]  307 	ld	a, #0x00
   01D4 DD 9E ED      [19]  308 	sbc	a, -19 (ix)
   01D7 47            [ 4]  309 	ld	b, a
                     01D8   310 	C$_fsadd.c$94$2_0$22	= .
                            311 	.globl	C$_fsadd.c$94$2_0$22
                            312 ;_fsadd.c:94: exp1 += expd;
   01D8 DD 7E E8      [19]  313 	ld	a, -24 (ix)
   01DB 81            [ 4]  314 	add	a, c
   01DC DD 77 E8      [19]  315 	ld	-24 (ix), a
   01DF DD 7E E9      [19]  316 	ld	a, -23 (ix)
   01E2 88            [ 4]  317 	adc	a, b
   01E3 DD 77 E9      [19]  318 	ld	-23 (ix), a
                     01E6   319 	C$_fsadd.c$95$2_0$22	= .
                            320 	.globl	C$_fsadd.c$95$2_0$22
                            321 ;_fsadd.c:95: mant1 >>= expd;
   01E6 0C            [ 4]  322 	inc	c
   01E7 18 10         [12]  323 	jr	00251$
   01E9                     324 00250$:
   01E9 DD CB E7 2E   [23]  325 	sra	-25 (ix)
   01ED DD CB E6 1E   [23]  326 	rr	-26 (ix)
   01F1 DD CB E5 1E   [23]  327 	rr	-27 (ix)
   01F5 DD CB E4 1E   [23]  328 	rr	-28 (ix)
   01F9                     329 00251$:
   01F9 0D            [ 4]  330 	dec	c
   01FA 20 ED         [12]  331 	jr	NZ, 00250$
   01FC 18 18         [12]  332 	jr	00117$
   01FE                     333 00116$:
                     01FE   334 	C$_fsadd.c$99$2_0$23	= .
                            335 	.globl	C$_fsadd.c$99$2_0$23
                            336 ;_fsadd.c:99: mant2 >>= expd;
   01FE DD 46 EC      [19]  337 	ld	b, -20 (ix)
   0201 04            [ 4]  338 	inc	b
   0202 18 10         [12]  339 	jr	00253$
   0204                     340 00252$:
   0204 DD CB FB 2E   [23]  341 	sra	-5 (ix)
   0208 DD CB FA 1E   [23]  342 	rr	-6 (ix)
   020C DD CB F9 1E   [23]  343 	rr	-7 (ix)
   0210 DD CB F8 1E   [23]  344 	rr	-8 (ix)
   0214                     345 00253$:
   0214 10 EE         [13]  346 	djnz	00252$
   0216                     347 00117$:
                     0216   348 	C$_fsadd.c$101$1_0$21	= .
                            349 	.globl	C$_fsadd.c$101$1_0$21
                            350 ;_fsadd.c:101: mant1 += mant2;
   0216 DD 7E E4      [19]  351 	ld	a, -28 (ix)
   0219 DD 86 F8      [19]  352 	add	a, -8 (ix)
   021C DD 77 E4      [19]  353 	ld	-28 (ix), a
   021F DD 7E E5      [19]  354 	ld	a, -27 (ix)
   0222 DD 8E F9      [19]  355 	adc	a, -7 (ix)
   0225 DD 77 E5      [19]  356 	ld	-27 (ix), a
   0228 DD 7E E6      [19]  357 	ld	a, -26 (ix)
   022B DD 8E FA      [19]  358 	adc	a, -6 (ix)
   022E DD 77 E6      [19]  359 	ld	-26 (ix), a
   0231 DD 7E E7      [19]  360 	ld	a, -25 (ix)
   0234 DD 8E FB      [19]  361 	adc	a, -5 (ix)
   0237 DD 77 E7      [19]  362 	ld	-25 (ix), a
   023A 21 18 00      [10]  363 	ld	hl, #24
   023D 39            [11]  364 	add	hl, sp
   023E EB            [ 4]  365 	ex	de, hl
   023F 21 00 00      [10]  366 	ld	hl, #0
   0242 39            [11]  367 	add	hl, sp
   0243 01 04 00      [10]  368 	ld	bc, #4
   0246 ED B0         [21]  369 	ldir
                     0248   370 	C$_fsadd.c$103$1_0$21	= .
                            371 	.globl	C$_fsadd.c$103$1_0$21
                            372 ;_fsadd.c:103: sign = false;
   0248 DD 36 F0 00   [19]  373 	ld	-16 (ix), #0x00
   024C DD 36 F1 00   [19]  374 	ld	-15 (ix), #0x00
                     0250   375 	C$_fsadd.c$105$1_0$21	= .
                            376 	.globl	C$_fsadd.c$105$1_0$21
                            377 ;_fsadd.c:105: if (mant1 < 0)
   0250 DD CB FF 7E   [20]  378 	bit	7, -1 (ix)
   0254 28 29         [12]  379 	jr	Z,00121$
                     0256   380 	C$_fsadd.c$107$2_0$24	= .
                            381 	.globl	C$_fsadd.c$107$2_0$24
                            382 ;_fsadd.c:107: mant1 = -mant1;
   0256 AF            [ 4]  383 	xor	a, a
   0257 DD 96 FC      [19]  384 	sub	a, -4 (ix)
   025A DD 77 FC      [19]  385 	ld	-4 (ix), a
   025D 3E 00         [ 7]  386 	ld	a, #0x00
   025F DD 9E FD      [19]  387 	sbc	a, -3 (ix)
   0262 DD 77 FD      [19]  388 	ld	-3 (ix), a
   0265 3E 00         [ 7]  389 	ld	a, #0x00
   0267 DD 9E FE      [19]  390 	sbc	a, -2 (ix)
   026A DD 77 FE      [19]  391 	ld	-2 (ix), a
   026D 3E 00         [ 7]  392 	ld	a, #0x00
   026F DD 9E FF      [19]  393 	sbc	a, -1 (ix)
   0272 DD 77 FF      [19]  394 	ld	-1 (ix), a
                     0275   395 	C$_fsadd.c$108$2_0$24	= .
                            396 	.globl	C$_fsadd.c$108$2_0$24
                            397 ;_fsadd.c:108: sign = true;
   0275 DD 36 F0 01   [19]  398 	ld	-16 (ix), #0x01
   0279 DD 36 F1 00   [19]  399 	ld	-15 (ix), #0x00
   027D 18 16         [12]  400 	jr	00154$
   027F                     401 00121$:
                     027F   402 	C$_fsadd.c$110$1_0$21	= .
                            403 	.globl	C$_fsadd.c$110$1_0$21
                            404 ;_fsadd.c:110: else if (!mant1)
   027F DD 7E FF      [19]  405 	ld	a, -1 (ix)
   0282 DD B6 FE      [19]  406 	or	a, -2 (ix)
   0285 DD B6 FD      [19]  407 	or	a, -3 (ix)
   0288 DD B6 FC      [19]  408 	or	a, -4 (ix)
   028B 20 08         [12]  409 	jr	NZ,00154$
                     028D   410 	C$_fsadd.c$111$1_0$21	= .
                            411 	.globl	C$_fsadd.c$111$1_0$21
                            412 ;_fsadd.c:111: return (0);
   028D 21 00 00      [10]  413 	ld	hl,#0x0000
   0290 5D            [ 4]  414 	ld	e,l
   0291 54            [ 4]  415 	ld	d,h
   0292 C3r65r04      [10]  416 	jp	00137$
                     0295   417 	C$_fsadd.c$114$1_0$21	= .
                            418 	.globl	C$_fsadd.c$114$1_0$21
                            419 ;_fsadd.c:114: while (mant1 < (HIDDEN<<4)) {
   0295                     420 00154$:
   0295 DD 7E E8      [19]  421 	ld	a, -24 (ix)
   0298 DD 77 E4      [19]  422 	ld	-28 (ix), a
   029B DD 7E E9      [19]  423 	ld	a, -23 (ix)
   029E DD 77 E5      [19]  424 	ld	-27 (ix), a
   02A1                     425 00123$:
   02A1 21 08 00      [10]  426 	ld	hl, #8
   02A4 39            [11]  427 	add	hl, sp
   02A5 EB            [ 4]  428 	ex	de, hl
   02A6 21 18 00      [10]  429 	ld	hl, #24
   02A9 39            [11]  430 	add	hl, sp
   02AA 01 04 00      [10]  431 	ld	bc, #4
   02AD ED B0         [21]  432 	ldir
   02AF DD 7E EF      [19]  433 	ld	a, -17 (ix)
   02B2 D6 08         [ 7]  434 	sub	a, #0x08
   02B4 30 16         [12]  435 	jr	NC,00157$
                     02B6   436 	C$_fsadd.c$115$2_0$25	= .
                            437 	.globl	C$_fsadd.c$115$2_0$25
                            438 ;_fsadd.c:115: mant1 <<= 1;
   02B6 DD CB FC 26   [23]  439 	sla	-4 (ix)
   02BA DD CB FD 16   [23]  440 	rl	-3 (ix)
   02BE DD CB FE 16   [23]  441 	rl	-2 (ix)
   02C2 DD CB FF 16   [23]  442 	rl	-1 (ix)
                     02C6   443 	C$_fsadd.c$116$2_0$25	= .
                            444 	.globl	C$_fsadd.c$116$2_0$25
                            445 ;_fsadd.c:116: exp1--;
   02C6 E1            [10]  446 	pop	hl
   02C7 E5            [11]  447 	push	hl
   02C8 2B            [ 6]  448 	dec	hl
   02C9 E3            [19]  449 	ex	(sp), hl
   02CA 18 D5         [12]  450 	jr	00123$
                     02CC   451 	C$_fsadd.c$120$1_0$21	= .
                            452 	.globl	C$_fsadd.c$120$1_0$21
                            453 ;_fsadd.c:120: while (mant1 & 0xf0000000) {
   02CC                     454 00157$:
   02CC DD 7E E4      [19]  455 	ld	a, -28 (ix)
   02CF DD 77 F4      [19]  456 	ld	-12 (ix), a
   02D2 DD 7E E5      [19]  457 	ld	a, -27 (ix)
   02D5 DD 77 F5      [19]  458 	ld	-11 (ix), a
   02D8                     459 00128$:
   02D8 DD 7E FF      [19]  460 	ld	a, -1 (ix)
   02DB E6 F0         [ 7]  461 	and	a, #0xf0
   02DD 28 3D         [12]  462 	jr	Z,00163$
                     02DF   463 	C$_fsadd.c$121$2_0$26	= .
                            464 	.globl	C$_fsadd.c$121$2_0$26
                            465 ;_fsadd.c:121: if (mant1&1)
   02DF DD CB FC 46   [20]  466 	bit	0, -4 (ix)
   02E3 28 1D         [12]  467 	jr	Z,00127$
                     02E5   468 	C$_fsadd.c$122$2_0$26	= .
                            469 	.globl	C$_fsadd.c$122$2_0$26
                            470 ;_fsadd.c:122: mant1 += 2;
   02E5 DD 7E FC      [19]  471 	ld	a, -4 (ix)
   02E8 C6 02         [ 7]  472 	add	a, #0x02
   02EA DD 77 FC      [19]  473 	ld	-4 (ix), a
   02ED DD 7E FD      [19]  474 	ld	a, -3 (ix)
   02F0 CE 00         [ 7]  475 	adc	a, #0x00
   02F2 DD 77 FD      [19]  476 	ld	-3 (ix), a
   02F5 DD 7E FE      [19]  477 	ld	a, -2 (ix)
   02F8 CE 00         [ 7]  478 	adc	a, #0x00
   02FA DD 77 FE      [19]  479 	ld	-2 (ix), a
   02FD 30 03         [12]  480 	jr	NC,00258$
   02FF DD 34 FF      [23]  481 	inc	-1 (ix)
   0302                     482 00258$:
   0302                     483 00127$:
                     0302   484 	C$_fsadd.c$123$2_0$26	= .
                            485 	.globl	C$_fsadd.c$123$2_0$26
                            486 ;_fsadd.c:123: mant1 >>= 1;
   0302 DD CB FF 2E   [23]  487 	sra	-1 (ix)
   0306 DD CB FE 1E   [23]  488 	rr	-2 (ix)
   030A DD CB FD 1E   [23]  489 	rr	-3 (ix)
   030E DD CB FC 1E   [23]  490 	rr	-4 (ix)
                     0312   491 	C$_fsadd.c$124$2_0$26	= .
                            492 	.globl	C$_fsadd.c$124$2_0$26
                            493 ;_fsadd.c:124: exp1++;
   0312 DD 34 F4      [23]  494 	inc	-12 (ix)
   0315 20 C1         [12]  495 	jr	NZ,00128$
   0317 DD 34 F5      [23]  496 	inc	-11 (ix)
   031A 18 BC         [12]  497 	jr	00128$
   031C                     498 00163$:
   031C DD 7E F4      [19]  499 	ld	a, -12 (ix)
   031F DD 77 E4      [19]  500 	ld	-28 (ix), a
   0322 DD 7E F5      [19]  501 	ld	a, -11 (ix)
   0325 DD 77 E5      [19]  502 	ld	-27 (ix), a
                     0328   503 	C$_fsadd.c$128$1_0$21	= .
                            504 	.globl	C$_fsadd.c$128$1_0$21
                            505 ;_fsadd.c:128: mant1 &= ~(HIDDEN<<4);
   0328 DD 7E FC      [19]  506 	ld	a, -4 (ix)
   032B DD 77 EC      [19]  507 	ld	-20 (ix), a
   032E DD 7E FD      [19]  508 	ld	a, -3 (ix)
   0331 DD 77 ED      [19]  509 	ld	-19 (ix), a
   0334 DD 7E FE      [19]  510 	ld	a, -2 (ix)
   0337 DD 77 EE      [19]  511 	ld	-18 (ix), a
   033A DD 7E FF      [19]  512 	ld	a, -1 (ix)
   033D E6 F7         [ 7]  513 	and	a, #0xf7
   033F DD 77 EF      [19]  514 	ld	-17 (ix), a
                     0342   515 	C$_fsadd.c$131$1_0$21	= .
                            516 	.globl	C$_fsadd.c$131$1_0$21
                            517 ;_fsadd.c:131: if (exp1 >= 0x100)
   0342 DD 7E F5      [19]  518 	ld	a, -11 (ix)
   0345 EE 80         [ 7]  519 	xor	a, #0x80
   0347 D6 81         [ 7]  520 	sub	a, #0x81
   0349 38 3C         [12]  521 	jr	C,00135$
                     034B   522 	C$_fsadd.c$132$1_0$21	= .
                            523 	.globl	C$_fsadd.c$132$1_0$21
                            524 ;_fsadd.c:132: *pfl1 = (sign ? (SIGNBIT | __INFINITY) : __INFINITY);
   034B DD 7E F1      [19]  525 	ld	a, -15 (ix)
   034E DD B6 F0      [19]  526 	or	a, -16 (ix)
   0351 28 12         [12]  527 	jr	Z,00139$
   0353 DD 36 E8 00   [19]  528 	ld	-24 (ix), #0x00
   0357 DD 36 E9 00   [19]  529 	ld	-23 (ix), #0x00
   035B DD 36 EA 80   [19]  530 	ld	-22 (ix), #0x80
   035F DD 36 EB FF   [19]  531 	ld	-21 (ix), #0xff
   0363 18 10         [12]  532 	jr	00140$
   0365                     533 00139$:
   0365 DD 36 E8 00   [19]  534 	ld	-24 (ix), #0x00
   0369 DD 36 E9 00   [19]  535 	ld	-23 (ix), #0x00
   036D DD 36 EA 80   [19]  536 	ld	-22 (ix), #0x80
   0371 DD 36 EB 7F   [19]  537 	ld	-21 (ix), #0x7f
   0375                     538 00140$:
   0375 DD 5E F6      [19]  539 	ld	e, -10 (ix)
   0378 DD 56 F7      [19]  540 	ld	d, -9 (ix)
   037B 21 04 00      [10]  541 	ld	hl, #0x0004
   037E 39            [11]  542 	add	hl, sp
   037F 01 04 00      [10]  543 	ld	bc, #0x0004
   0382 ED B0         [21]  544 	ldir
   0384 C3r59r04      [10]  545 	jp	00136$
   0387                     546 00135$:
                     0387   547 	C$_fsadd.c$133$1_0$21	= .
                            548 	.globl	C$_fsadd.c$133$1_0$21
                            549 ;_fsadd.c:133: else if (exp1 < 0)
   0387 DD CB F5 7E   [20]  550 	bit	7, -11 (ix)
   038B 28 12         [12]  551 	jr	Z,00132$
                     038D   552 	C$_fsadd.c$134$1_0$21	= .
                            553 	.globl	C$_fsadd.c$134$1_0$21
                            554 ;_fsadd.c:134: *pfl1 = 0;
   038D DD 6E F6      [19]  555 	ld	l, -10 (ix)
   0390 DD 66 F7      [19]  556 	ld	h, -9 (ix)
   0393 AF            [ 4]  557 	xor	a, a
   0394 77            [ 7]  558 	ld	(hl), a
   0395 23            [ 6]  559 	inc	hl
   0396 77            [ 7]  560 	ld	(hl), a
   0397 23            [ 6]  561 	inc	hl
   0398 77            [ 7]  562 	ld	(hl), a
   0399 23            [ 6]  563 	inc	hl
   039A 36 00         [10]  564 	ld	(hl), #0x00
   039C C3r59r04      [10]  565 	jp	00136$
   039F                     566 00132$:
                     039F   567 	C$_fsadd.c$136$1_0$21	= .
                            568 	.globl	C$_fsadd.c$136$1_0$21
                            569 ;_fsadd.c:136: *pfl1 = PACK (sign ? SIGNBIT : 0 , exp1, mant1>>4);
   039F DD 7E F1      [19]  570 	ld	a, -15 (ix)
   03A2 DD B6 F0      [19]  571 	or	a, -16 (ix)
   03A5 28 12         [12]  572 	jr	Z,00141$
   03A7 DD 36 E8 00   [19]  573 	ld	-24 (ix), #0x00
   03AB DD 36 E9 00   [19]  574 	ld	-23 (ix), #0x00
   03AF DD 36 EA 00   [19]  575 	ld	-22 (ix), #0x00
   03B3 DD 36 EB 80   [19]  576 	ld	-21 (ix), #0x80
   03B7 18 0D         [12]  577 	jr	00142$
   03B9                     578 00141$:
   03B9 AF            [ 4]  579 	xor	a, a
   03BA DD 77 E8      [19]  580 	ld	-24 (ix), a
   03BD DD 77 E9      [19]  581 	ld	-23 (ix), a
   03C0 DD 77 EA      [19]  582 	ld	-22 (ix), a
   03C3 DD 77 EB      [19]  583 	ld	-21 (ix), a
   03C6                     584 00142$:
   03C6 DD 7E E4      [19]  585 	ld	a, -28 (ix)
   03C9 DD 77 E4      [19]  586 	ld	-28 (ix), a
   03CC DD 7E E5      [19]  587 	ld	a, -27 (ix)
   03CF DD 77 E5      [19]  588 	ld	-27 (ix), a
   03D2 17            [ 4]  589 	rla
   03D3 9F            [ 4]  590 	sbc	a, a
   03D4 DD 77 E6      [19]  591 	ld	-26 (ix), a
   03D7 DD 77 E7      [19]  592 	ld	-25 (ix), a
   03DA 06 17         [ 7]  593 	ld	b, #0x17
   03DC                     594 00262$:
   03DC DD CB E4 26   [23]  595 	sla	-28 (ix)
   03E0 DD CB E5 16   [23]  596 	rl	-27 (ix)
   03E4 DD CB E6 16   [23]  597 	rl	-26 (ix)
   03E8 DD CB E7 16   [23]  598 	rl	-25 (ix)
   03EC 10 EE         [13]  599 	djnz	00262$
   03EE DD 7E E4      [19]  600 	ld	a, -28 (ix)
   03F1 DD B6 E8      [19]  601 	or	a, -24 (ix)
   03F4 DD 77 E4      [19]  602 	ld	-28 (ix), a
   03F7 DD 7E E5      [19]  603 	ld	a, -27 (ix)
   03FA DD B6 E9      [19]  604 	or	a, -23 (ix)
   03FD DD 77 E5      [19]  605 	ld	-27 (ix), a
   0400 DD 7E E6      [19]  606 	ld	a, -26 (ix)
   0403 DD B6 EA      [19]  607 	or	a, -22 (ix)
   0406 DD 77 E6      [19]  608 	ld	-26 (ix), a
   0409 DD 7E E7      [19]  609 	ld	a, -25 (ix)
   040C DD B6 EB      [19]  610 	or	a, -21 (ix)
   040F DD 77 E7      [19]  611 	ld	-25 (ix), a
   0412 06 04         [ 7]  612 	ld	b, #0x04
   0414                     613 00264$:
   0414 DD CB EF 2E   [23]  614 	sra	-17 (ix)
   0418 DD CB EE 1E   [23]  615 	rr	-18 (ix)
   041C DD CB ED 1E   [23]  616 	rr	-19 (ix)
   0420 DD CB EC 1E   [23]  617 	rr	-20 (ix)
   0424 10 EE         [13]  618 	djnz	00264$
   0426 DD 7E E4      [19]  619 	ld	a, -28 (ix)
   0429 DD B6 EC      [19]  620 	or	a, -20 (ix)
   042C DD 77 E4      [19]  621 	ld	-28 (ix), a
   042F DD 7E E5      [19]  622 	ld	a, -27 (ix)
   0432 DD B6 ED      [19]  623 	or	a, -19 (ix)
   0435 DD 77 E5      [19]  624 	ld	-27 (ix), a
   0438 DD 7E E6      [19]  625 	ld	a, -26 (ix)
   043B DD B6 EE      [19]  626 	or	a, -18 (ix)
   043E DD 77 E6      [19]  627 	ld	-26 (ix), a
   0441 DD 7E E7      [19]  628 	ld	a, -25 (ix)
   0444 DD B6 EF      [19]  629 	or	a, -17 (ix)
   0447 DD 77 E7      [19]  630 	ld	-25 (ix), a
   044A DD 5E F6      [19]  631 	ld	e, -10 (ix)
   044D DD 56 F7      [19]  632 	ld	d, -9 (ix)
   0450 21 00 00      [10]  633 	ld	hl, #0x0000
   0453 39            [11]  634 	add	hl, sp
   0454 01 04 00      [10]  635 	ld	bc, #0x0004
   0457 ED B0         [21]  636 	ldir
   0459                     637 00136$:
                     0459   638 	C$_fsadd.c$137$1_0$21	= .
                            639 	.globl	C$_fsadd.c$137$1_0$21
                            640 ;_fsadd.c:137: return (a1);
   0459 DD 6E 04      [19]  641 	ld	l, 4 (ix)
   045C DD 66 05      [19]  642 	ld	h, 5 (ix)
   045F DD 5E 06      [19]  643 	ld	e, 6 (ix)
   0462 DD 56 07      [19]  644 	ld	d, 7 (ix)
   0465                     645 00137$:
                     0465   646 	C$_fsadd.c$138$1_0$21	= .
                            647 	.globl	C$_fsadd.c$138$1_0$21
                            648 ;_fsadd.c:138: }
   0465 DD F9         [10]  649 	ld	sp, ix
   0467 DD E1         [14]  650 	pop	ix
                     0469   651 	C$_fsadd.c$138$1_0$21	= .
                            652 	.globl	C$_fsadd.c$138$1_0$21
                     0469   653 	XG$__fsadd$0$0	= .
                            654 	.globl	XG$__fsadd$0$0
   0469 C9            [10]  655 	ret
                            656 	.area _HOME
                            657 ;--------------------------------------------------------
                            658 ; code
                            659 ;--------------------------------------------------------
                            660 	.area _CODE
                            661 	.area _CODE
                            662 	.area _INITIALIZER
                            663 	.area _CABS (ABS)
