                              1 ;--------------------------------------------------------
                              2 ; File Created by SDCC : free open source ANSI-C Compiler
                              3 ; Version 3.8.0 #10562 (Linux)
                              4 ;--------------------------------------------------------
                              5 	.module _fsdiv
                              6 	.optsdcc -mz80
                              7 	
                              8 ;--------------------------------------------------------
                              9 ; Public variables in this module
                             10 ;--------------------------------------------------------
                             11 	.globl ___fsdiv
                             12 ;--------------------------------------------------------
                             13 ; special function registers
                             14 ;--------------------------------------------------------
                             15 ;--------------------------------------------------------
                             16 ; ram data
                             17 ;--------------------------------------------------------
                             18 	.area _DATA
                             19 ;--------------------------------------------------------
                             20 ; ram data
                             21 ;--------------------------------------------------------
                             22 	.area _INITIALIZED
                             23 ;--------------------------------------------------------
                             24 ; absolute external ram data
                             25 ;--------------------------------------------------------
                             26 	.area _DABS (ABS)
                             27 ;--------------------------------------------------------
                             28 ; global & static initialisations
                             29 ;--------------------------------------------------------
                             30 	.area _HOME
                             31 	.area _GSINIT
                             32 	.area _GSFINAL
                             33 	.area _GSINIT
                             34 ;--------------------------------------------------------
                             35 ; Home
                             36 ;--------------------------------------------------------
                             37 	.area _HOME
                     0000    38 	G$__fsdiv$0$0	= .
                             39 	.globl	G$__fsdiv$0$0
                     0000    40 	C$_fsdiv.c$133$1_0$29	= .
                             41 	.globl	C$_fsdiv.c$133$1_0$29
                             42 ;_fsdiv.c:133: float __fsdiv (float a1, float a2)
                             43 ;	---------------------------------
                             44 ; Function __fsdiv
                             45 ; ---------------------------------
   0000                      46 ___fsdiv::
   0000 DD E5         [15]   47 	push	ix
   0002 DD 21 00 00   [14]   48 	ld	ix,#0
   0006 DD 39         [15]   49 	add	ix,sp
   0008 F5            [11]   50 	push	af
   0009 F5            [11]   51 	push	af
                     000A    52 	C$_fsdiv.c$135$1_0$29	= .
                             53 	.globl	C$_fsdiv.c$135$1_0$29
                             54 ;_fsdiv.c:135: unsigned long _AUTOMEM *p2 = (unsigned long *) &a2;
   000A 21 0C 00      [10]   55 	ld	hl, #0x000c
   000D 39            [11]   56 	add	hl, sp
                     000E    57 	C$_fsdiv.c$137$1_0$29	= .
                             58 	.globl	C$_fsdiv.c$137$1_0$29
                             59 ;_fsdiv.c:137: if (EXP (*p2) == 0) // a2 is denormal or zero, treat as zero
   000E 4E            [ 7]   60 	ld	c, (hl)
   000F 23            [ 6]   61 	inc	hl
   0010 46            [ 7]   62 	ld	b, (hl)
   0011 23            [ 6]   63 	inc	hl
   0012 5E            [ 7]   64 	ld	e, (hl)
   0013 23            [ 6]   65 	inc	hl
   0014 56            [ 7]   66 	ld	d, (hl)
   0015 06 07         [ 7]   67 	ld	b, #0x07
   0017                      68 00126$:
   0017 CB 3A         [ 8]   69 	srl	d
   0019 CB 1B         [ 8]   70 	rr	e
   001B 10 FA         [13]   71 	djnz	00126$
   001D 7B            [ 4]   72 	ld	a, e
   001E B7            [ 4]   73 	or	a, a
   001F C2rA4r00      [10]   74 	jp	NZ,00108$
                     0022    75 	C$_fsdiv.c$140$2_0$30	= .
                             76 	.globl	C$_fsdiv.c$140$2_0$30
                             77 ;_fsdiv.c:140: unsigned long _AUTOMEM *p = (unsigned long *) &f;
   0022 21 00 00      [10]   78 	ld	hl, #0x0000
   0025 39            [11]   79 	add	hl, sp
   0026 45            [ 4]   80 	ld	b, l
   0027 4C            [ 4]   81 	ld	c, h
                     0028    82 	C$_fsdiv.c$141$1_0$29	= .
                             83 	.globl	C$_fsdiv.c$141$1_0$29
                             84 ;_fsdiv.c:141: if (a1 > 0.0f)
   0028 C5            [11]   85 	push	bc
   0029 DD 6E 06      [19]   86 	ld	l, 6 (ix)
   002C DD 66 07      [19]   87 	ld	h, 7 (ix)
   002F E5            [11]   88 	push	hl
   0030 DD 6E 04      [19]   89 	ld	l, 4 (ix)
   0033 DD 66 05      [19]   90 	ld	h, 5 (ix)
   0036 E5            [11]   91 	push	hl
   0037 21 00 00      [10]   92 	ld	hl, #0x0000
   003A E5            [11]   93 	push	hl
   003B 21 00 00      [10]   94 	ld	hl, #0x0000
   003E E5            [11]   95 	push	hl
   003F CDr00r00      [17]   96 	call	___fslt
   0042 F1            [10]   97 	pop	af
   0043 F1            [10]   98 	pop	af
   0044 F1            [10]   99 	pop	af
   0045 F1            [10]  100 	pop	af
   0046 7D            [ 4]  101 	ld	a, l
   0047 C1            [10]  102 	pop	bc
   0048 B7            [ 4]  103 	or	a, a
   0049 28 0E         [12]  104 	jr	Z,00105$
                     004B   105 	C$_fsdiv.c$142$2_0$30	= .
                            106 	.globl	C$_fsdiv.c$142$2_0$30
                            107 ;_fsdiv.c:142: *p = __INFINITY;           // +inf
   004B 68            [ 4]  108 	ld	l, b
   004C 61            [ 4]  109 	ld	h, c
   004D AF            [ 4]  110 	xor	a, a
   004E 77            [ 7]  111 	ld	(hl), a
   004F 23            [ 6]  112 	inc	hl
   0050 77            [ 7]  113 	ld	(hl), a
   0051 23            [ 6]  114 	inc	hl
   0052 36 80         [10]  115 	ld	(hl), #0x80
   0054 23            [ 6]  116 	inc	hl
   0055 36 7F         [10]  117 	ld	(hl), #0x7f
   0057 18 3D         [12]  118 	jr	00106$
   0059                     119 00105$:
                     0059   120 	C$_fsdiv.c$143$1_0$29	= .
                            121 	.globl	C$_fsdiv.c$143$1_0$29
                            122 ;_fsdiv.c:143: else if (a1 < 0.0f)
   0059 C5            [11]  123 	push	bc
   005A 21 00 00      [10]  124 	ld	hl, #0x0000
   005D E5            [11]  125 	push	hl
   005E 21 00 00      [10]  126 	ld	hl, #0x0000
   0061 E5            [11]  127 	push	hl
   0062 DD 6E 06      [19]  128 	ld	l, 6 (ix)
   0065 DD 66 07      [19]  129 	ld	h, 7 (ix)
   0068 E5            [11]  130 	push	hl
   0069 DD 6E 04      [19]  131 	ld	l, 4 (ix)
   006C DD 66 05      [19]  132 	ld	h, 5 (ix)
   006F E5            [11]  133 	push	hl
   0070 CDr00r00      [17]  134 	call	___fslt
   0073 F1            [10]  135 	pop	af
   0074 F1            [10]  136 	pop	af
   0075 F1            [10]  137 	pop	af
   0076 F1            [10]  138 	pop	af
   0077 7D            [ 4]  139 	ld	a, l
   0078 C1            [10]  140 	pop	bc
   0079 B7            [ 4]  141 	or	a, a
   007A 28 0E         [12]  142 	jr	Z,00102$
                     007C   143 	C$_fsdiv.c$144$2_0$30	= .
                            144 	.globl	C$_fsdiv.c$144$2_0$30
                            145 ;_fsdiv.c:144: *p = SIGNBIT | __INFINITY; // -inf
   007C 68            [ 4]  146 	ld	l, b
   007D 61            [ 4]  147 	ld	h, c
   007E AF            [ 4]  148 	xor	a, a
   007F 77            [ 7]  149 	ld	(hl), a
   0080 23            [ 6]  150 	inc	hl
   0081 77            [ 7]  151 	ld	(hl), a
   0082 23            [ 6]  152 	inc	hl
   0083 36 80         [10]  153 	ld	(hl), #0x80
   0085 23            [ 6]  154 	inc	hl
   0086 36 FF         [10]  155 	ld	(hl), #0xff
   0088 18 0C         [12]  156 	jr	00106$
   008A                     157 00102$:
                     008A   158 	C$_fsdiv.c$146$2_0$30	= .
                            159 	.globl	C$_fsdiv.c$146$2_0$30
                            160 ;_fsdiv.c:146: *p = __NAN;                // nan
   008A 68            [ 4]  161 	ld	l, b
   008B 61            [ 4]  162 	ld	h, c
   008C AF            [ 4]  163 	xor	a, a
   008D 77            [ 7]  164 	ld	(hl), a
   008E 23            [ 6]  165 	inc	hl
   008F 77            [ 7]  166 	ld	(hl), a
   0090 23            [ 6]  167 	inc	hl
   0091 36 C0         [10]  168 	ld	(hl), #0xc0
   0093 23            [ 6]  169 	inc	hl
   0094 36 FF         [10]  170 	ld	(hl), #0xff
   0096                     171 00106$:
                     0096   172 	C$_fsdiv.c$147$2_0$30	= .
                            173 	.globl	C$_fsdiv.c$147$2_0$30
                            174 ;_fsdiv.c:147: return f;
   0096 DD 6E FC      [19]  175 	ld	l, -4 (ix)
   0099 DD 66 FD      [19]  176 	ld	h, -3 (ix)
   009C DD 5E FE      [19]  177 	ld	e, -2 (ix)
   009F DD 56 FF      [19]  178 	ld	d, -1 (ix)
   00A2 18 23         [12]  179 	jr	00109$
   00A4                     180 00108$:
                     00A4   181 	C$_fsdiv.c$149$1_0$29	= .
                            182 	.globl	C$_fsdiv.c$149$1_0$29
                            183 ;_fsdiv.c:149: return __fsdiv_org (a1, a2);
   00A4 DD 6E 0A      [19]  184 	ld	l, 10 (ix)
   00A7 DD 66 0B      [19]  185 	ld	h, 11 (ix)
   00AA E5            [11]  186 	push	hl
   00AB DD 6E 08      [19]  187 	ld	l, 8 (ix)
   00AE DD 66 09      [19]  188 	ld	h, 9 (ix)
   00B1 E5            [11]  189 	push	hl
   00B2 DD 6E 06      [19]  190 	ld	l, 6 (ix)
   00B5 DD 66 07      [19]  191 	ld	h, 7 (ix)
   00B8 E5            [11]  192 	push	hl
   00B9 DD 6E 04      [19]  193 	ld	l, 4 (ix)
   00BC DD 66 05      [19]  194 	ld	h, 5 (ix)
   00BF E5            [11]  195 	push	hl
   00C0 CDr00r00      [17]  196 	call	___fsdiv_org
   00C3 F1            [10]  197 	pop	af
   00C4 F1            [10]  198 	pop	af
   00C5 F1            [10]  199 	pop	af
   00C6 F1            [10]  200 	pop	af
   00C7                     201 00109$:
                     00C7   202 	C$_fsdiv.c$150$1_0$29	= .
                            203 	.globl	C$_fsdiv.c$150$1_0$29
                            204 ;_fsdiv.c:150: }
   00C7 DD F9         [10]  205 	ld	sp, ix
   00C9 DD E1         [14]  206 	pop	ix
                     00CB   207 	C$_fsdiv.c$150$1_0$29	= .
                            208 	.globl	C$_fsdiv.c$150$1_0$29
                     00CB   209 	XG$__fsdiv$0$0	= .
                            210 	.globl	XG$__fsdiv$0$0
   00CB C9            [10]  211 	ret
                            212 	.area _HOME
                            213 ;--------------------------------------------------------
                            214 ; code
                            215 ;--------------------------------------------------------
                            216 	.area _CODE
                     0000   217 	F_fsdiv$__fsdiv_org$0$0	= .
                            218 	.globl	F_fsdiv$__fsdiv_org$0$0
                     0000   219 	C$_fsdiv.c$58$0_0$21	= .
                            220 	.globl	C$_fsdiv.c$58$0_0$21
                            221 ;_fsdiv.c:58: static float __fsdiv_org (float a1, float a2)
                            222 ;	---------------------------------
                            223 ; Function __fsdiv_org
                            224 ; ---------------------------------
   0000                     225 ___fsdiv_org:
   0000 DD E5         [15]  226 	push	ix
   0002 DD 21 00 00   [14]  227 	ld	ix,#0
   0006 DD 39         [15]  228 	add	ix,sp
   0008 21 D1 FF      [10]  229 	ld	hl, #-47
   000B 39            [11]  230 	add	hl, sp
   000C F9            [ 6]  231 	ld	sp, hl
                     000D   232 	C$_fsdiv.c$67$1_0$21	= .
                            233 	.globl	C$_fsdiv.c$67$1_0$21
                            234 ;_fsdiv.c:67: fl1.f = a1;
   000D 21 04 00      [10]  235 	ld	hl, #0x0004
   0010 39            [11]  236 	add	hl, sp
   0011 EB            [ 4]  237 	ex	de, hl
   0012 21 33 00      [10]  238 	ld	hl, #0x0033
   0015 39            [11]  239 	add	hl, sp
   0016 01 04 00      [10]  240 	ld	bc, #0x0004
   0019 ED B0         [21]  241 	ldir
                     001B   242 	C$_fsdiv.c$69$1_0$21	= .
                            243 	.globl	C$_fsdiv.c$69$1_0$21
                            244 ;_fsdiv.c:69: exp = EXP (fl1.l);
   001B 21 04 00      [10]  245 	ld	hl, #0x0004
   001E 39            [11]  246 	add	hl, sp
   001F 4E            [ 7]  247 	ld	c, (hl)
   0020 23            [ 6]  248 	inc	hl
   0021 46            [ 7]  249 	ld	b, (hl)
   0022 23            [ 6]  250 	inc	hl
   0023 5E            [ 7]  251 	ld	e, (hl)
   0024 23            [ 6]  252 	inc	hl
   0025 56            [ 7]  253 	ld	d, (hl)
   0026 06 07         [ 7]  254 	ld	b, #0x07
   0028                     255 00174$:
   0028 CB 3A         [ 8]  256 	srl	d
   002A CB 1B         [ 8]  257 	rr	e
   002C 10 FA         [13]  258 	djnz	00174$
   002E DD 73 E5      [19]  259 	ld	-27 (ix), e
                     0031   260 	C$_fsdiv.c$71$1_0$21	= .
                            261 	.globl	C$_fsdiv.c$71$1_0$21
                            262 ;_fsdiv.c:71: if (!exp)
   0031 DD 36 E6 00   [19]  263 	ld	-26 (ix), #0x00
   0035 3E 00         [ 7]  264 	ld	a, #0x00
   0037 DD B6 E5      [19]  265 	or	a, -27 (ix)
   003A 20 08         [12]  266 	jr	NZ,00102$
                     003C   267 	C$_fsdiv.c$72$1_0$21	= .
                            268 	.globl	C$_fsdiv.c$72$1_0$21
                            269 ;_fsdiv.c:72: return (0);
   003C 21 00 00      [10]  270 	ld	hl,#0x0000
   003F 5D            [ 4]  271 	ld	e,l
   0040 54            [ 4]  272 	ld	d,h
   0041 C3rD3r03      [10]  273 	jp	00118$
   0044                     274 00102$:
                     0044   275 	C$_fsdiv.c$74$1_0$21	= .
                            276 	.globl	C$_fsdiv.c$74$1_0$21
                            277 ;_fsdiv.c:74: fl2.f = a2;
   0044 21 00 00      [10]  278 	ld	hl, #0x0000
   0047 39            [11]  279 	add	hl, sp
   0048 DD 75 E7      [19]  280 	ld	-25 (ix), l
   004B DD 74 E8      [19]  281 	ld	-24 (ix), h
   004E EB            [ 4]  282 	ex	de,hl
   004F 21 37 00      [10]  283 	ld	hl, #0x0037
   0052 39            [11]  284 	add	hl, sp
   0053 01 04 00      [10]  285 	ld	bc, #0x0004
   0056 ED B0         [21]  286 	ldir
                     0058   287 	C$_fsdiv.c$76$1_0$21	= .
                            288 	.globl	C$_fsdiv.c$76$1_0$21
                            289 ;_fsdiv.c:76: exp -= EXP (fl2.l);
   0058 21 00 00      [10]  290 	ld	hl, #0x0000
   005B 39            [11]  291 	add	hl, sp
   005C DD 75 E7      [19]  292 	ld	-25 (ix), l
   005F DD 74 E8      [19]  293 	ld	-24 (ix), h
   0062 EB            [ 4]  294 	ex	de,hl
   0063 21 10 00      [10]  295 	ld	hl, #0x0010
   0066 39            [11]  296 	add	hl, sp
   0067 EB            [ 4]  297 	ex	de, hl
   0068 01 04 00      [10]  298 	ld	bc, #0x0004
   006B ED B0         [21]  299 	ldir
   006D 06 17         [ 7]  300 	ld	b, #0x17
   006F                     301 00176$:
   006F DD CB E4 3E   [23]  302 	srl	-28 (ix)
   0073 DD CB E3 1E   [23]  303 	rr	-29 (ix)
   0077 DD CB E2 1E   [23]  304 	rr	-30 (ix)
   007B DD CB E1 1E   [23]  305 	rr	-31 (ix)
   007F 10 EE         [13]  306 	djnz	00176$
   0081 DD 7E E1      [19]  307 	ld	a, -31 (ix)
   0084 DD 77 E1      [19]  308 	ld	-31 (ix), a
   0087 DD 7E E2      [19]  309 	ld	a, -30 (ix)
   008A DD 77 E2      [19]  310 	ld	-30 (ix), a
   008D DD 7E E1      [19]  311 	ld	a, -31 (ix)
   0090 DD 77 E1      [19]  312 	ld	-31 (ix), a
   0093 DD 36 E2 00   [19]  313 	ld	-30 (ix), #0x00
   0097 DD 7E E5      [19]  314 	ld	a, -27 (ix)
   009A DD 96 E1      [19]  315 	sub	a, -31 (ix)
   009D DD 77 E1      [19]  316 	ld	-31 (ix), a
   00A0 DD 7E E6      [19]  317 	ld	a, -26 (ix)
   00A3 DD 9E E2      [19]  318 	sbc	a, -30 (ix)
   00A6 DD 77 E2      [19]  319 	ld	-30 (ix), a
   00A9 DD 7E E1      [19]  320 	ld	a, -31 (ix)
   00AC DD 77 EE      [19]  321 	ld	-18 (ix), a
   00AF DD 7E E2      [19]  322 	ld	a, -30 (ix)
   00B2 DD 77 EF      [19]  323 	ld	-17 (ix), a
                     00B5   324 	C$_fsdiv.c$77$1_0$21	= .
                            325 	.globl	C$_fsdiv.c$77$1_0$21
                            326 ;_fsdiv.c:77: exp += EXCESS;
   00B5 DD 7E EE      [19]  327 	ld	a, -18 (ix)
   00B8 C6 7E         [ 7]  328 	add	a, #0x7e
   00BA DD 77 E1      [19]  329 	ld	-31 (ix), a
   00BD DD 7E EF      [19]  330 	ld	a, -17 (ix)
   00C0 CE 00         [ 7]  331 	adc	a, #0x00
   00C2 DD 77 E2      [19]  332 	ld	-30 (ix), a
                     00C5   333 	C$_fsdiv.c$80$1_0$21	= .
                            334 	.globl	C$_fsdiv.c$80$1_0$21
                            335 ;_fsdiv.c:80: sign = SIGN (fl1.l) ^ SIGN (fl2.l);
   00C5 21 04 00      [10]  336 	ld	hl, #0x0004
   00C8 39            [11]  337 	add	hl, sp
   00C9 DD 75 E7      [19]  338 	ld	-25 (ix), l
   00CC DD 74 E8      [19]  339 	ld	-24 (ix), h
   00CF EB            [ 4]  340 	ex	de,hl
   00D0 21 0C 00      [10]  341 	ld	hl, #0x000c
   00D3 39            [11]  342 	add	hl, sp
   00D4 EB            [ 4]  343 	ex	de, hl
   00D5 01 04 00      [10]  344 	ld	bc, #0x0004
   00D8 ED B0         [21]  345 	ldir
   00DA DD 7E E0      [19]  346 	ld	a, -32 (ix)
   00DD CB 07         [ 8]  347 	rlc	a
   00DF E6 01         [ 7]  348 	and	a, #0x01
   00E1 DD 77 DD      [19]  349 	ld	-35 (ix), a
   00E4 21 00 00      [10]  350 	ld	hl, #0x0000
   00E7 39            [11]  351 	add	hl, sp
   00E8 DD 75 E7      [19]  352 	ld	-25 (ix), l
   00EB DD 74 E8      [19]  353 	ld	-24 (ix), h
   00EE EB            [ 4]  354 	ex	de,hl
   00EF 21 08 00      [10]  355 	ld	hl, #0x0008
   00F2 39            [11]  356 	add	hl, sp
   00F3 EB            [ 4]  357 	ex	de, hl
   00F4 01 04 00      [10]  358 	ld	bc, #0x0004
   00F7 ED B0         [21]  359 	ldir
   00F9 DD 7E DC      [19]  360 	ld	a, -36 (ix)
   00FC CB 07         [ 8]  361 	rlc	a
   00FE E6 01         [ 7]  362 	and	a, #0x01
   0100 DD AE DD      [19]  363 	xor	a, -35 (ix)
   0103 DD 77 ED      [19]  364 	ld	-19 (ix), a
                     0106   365 	C$_fsdiv.c$83$1_0$21	= .
                            366 	.globl	C$_fsdiv.c$83$1_0$21
                            367 ;_fsdiv.c:83: mant1 = MANT (fl1.l);
   0106 21 04 00      [10]  368 	ld	hl, #0x0004
   0109 39            [11]  369 	add	hl, sp
   010A DD 75 D9      [19]  370 	ld	-39 (ix), l
   010D DD 74 DA      [19]  371 	ld	-38 (ix), h
   0110 EB            [ 4]  372 	ex	de,hl
   0111 21 08 00      [10]  373 	ld	hl, #0x0008
   0114 39            [11]  374 	add	hl, sp
   0115 EB            [ 4]  375 	ex	de, hl
   0116 01 04 00      [10]  376 	ld	bc, #0x0004
   0119 ED B0         [21]  377 	ldir
   011B DD 7E D9      [19]  378 	ld	a, -39 (ix)
   011E DD 77 D9      [19]  379 	ld	-39 (ix), a
   0121 DD 7E DA      [19]  380 	ld	a, -38 (ix)
   0124 DD 77 DA      [19]  381 	ld	-38 (ix), a
   0127 DD 7E DB      [19]  382 	ld	a, -37 (ix)
   012A DD 77 DB      [19]  383 	ld	-37 (ix), a
   012D DD 36 DC 00   [19]  384 	ld	-36 (ix), #0x00
   0131 DD 7E D9      [19]  385 	ld	a, -39 (ix)
   0134 DD 77 F4      [19]  386 	ld	-12 (ix), a
   0137 DD 7E DA      [19]  387 	ld	a, -38 (ix)
   013A DD 77 F5      [19]  388 	ld	-11 (ix), a
   013D DD 7E DB      [19]  389 	ld	a, -37 (ix)
   0140 F6 80         [ 7]  390 	or	a, #0x80
   0142 DD 77 F6      [19]  391 	ld	-10 (ix), a
   0145 DD 7E DC      [19]  392 	ld	a, -36 (ix)
   0148 DD 77 F7      [19]  393 	ld	-9 (ix), a
                     014B   394 	C$_fsdiv.c$84$1_0$21	= .
                            395 	.globl	C$_fsdiv.c$84$1_0$21
                            396 ;_fsdiv.c:84: mant2 = MANT (fl2.l);
   014B 21 00 00      [10]  397 	ld	hl, #0x0000
   014E 39            [11]  398 	add	hl, sp
   014F DD 75 D9      [19]  399 	ld	-39 (ix), l
   0152 DD 74 DA      [19]  400 	ld	-38 (ix), h
   0155 EB            [ 4]  401 	ex	de,hl
   0156 21 08 00      [10]  402 	ld	hl, #0x0008
   0159 39            [11]  403 	add	hl, sp
   015A EB            [ 4]  404 	ex	de, hl
   015B 01 04 00      [10]  405 	ld	bc, #0x0004
   015E ED B0         [21]  406 	ldir
   0160 DD 7E D9      [19]  407 	ld	a, -39 (ix)
   0163 DD 77 D9      [19]  408 	ld	-39 (ix), a
   0166 DD 7E DA      [19]  409 	ld	a, -38 (ix)
   0169 DD 77 DA      [19]  410 	ld	-38 (ix), a
   016C DD 7E DB      [19]  411 	ld	a, -37 (ix)
   016F DD 77 DB      [19]  412 	ld	-37 (ix), a
   0172 DD 36 DC 00   [19]  413 	ld	-36 (ix), #0x00
   0176 DD 7E D9      [19]  414 	ld	a, -39 (ix)
   0179 DD 77 F0      [19]  415 	ld	-16 (ix), a
   017C DD 7E DA      [19]  416 	ld	a, -38 (ix)
   017F DD 77 F1      [19]  417 	ld	-15 (ix), a
   0182 DD 7E DB      [19]  418 	ld	a, -37 (ix)
   0185 F6 80         [ 7]  419 	or	a, #0x80
   0187 DD 77 F2      [19]  420 	ld	-14 (ix), a
   018A DD 7E DC      [19]  421 	ld	a, -36 (ix)
   018D DD 77 F3      [19]  422 	ld	-13 (ix), a
                     0190   423 	C$_fsdiv.c$87$1_0$21	= .
                            424 	.globl	C$_fsdiv.c$87$1_0$21
                            425 ;_fsdiv.c:87: if (mant1 < mant2)
   0190 DD 7E F4      [19]  426 	ld	a, -12 (ix)
   0193 DD 96 F0      [19]  427 	sub	a, -16 (ix)
   0196 DD 7E F5      [19]  428 	ld	a, -11 (ix)
   0199 DD 9E F1      [19]  429 	sbc	a, -15 (ix)
   019C DD 7E F6      [19]  430 	ld	a, -10 (ix)
   019F DD 9E F2      [19]  431 	sbc	a, -14 (ix)
   01A2 DD 7E F7      [19]  432 	ld	a, -9 (ix)
   01A5 DD 9E F3      [19]  433 	sbc	a, -13 (ix)
   01A8 30 12         [12]  434 	jr	NC,00104$
                     01AA   435 	C$_fsdiv.c$89$2_0$22	= .
                            436 	.globl	C$_fsdiv.c$89$2_0$22
                            437 ;_fsdiv.c:89: mask = 0x1000000;
   01AA DD 36 F8 00   [19]  438 	ld	-8 (ix), #0x00
   01AE DD 36 F9 00   [19]  439 	ld	-7 (ix), #0x00
   01B2 DD 36 FA 00   [19]  440 	ld	-6 (ix), #0x00
   01B6 DD 36 FB 01   [19]  441 	ld	-5 (ix), #0x01
   01BA 18 18         [12]  442 	jr	00105$
   01BC                     443 00104$:
                     01BC   444 	C$_fsdiv.c$93$2_0$23	= .
                            445 	.globl	C$_fsdiv.c$93$2_0$23
                            446 ;_fsdiv.c:93: mask = 0x0800000;
   01BC DD 36 F8 00   [19]  447 	ld	-8 (ix), #0x00
   01C0 DD 36 F9 00   [19]  448 	ld	-7 (ix), #0x00
   01C4 DD 36 FA 80   [19]  449 	ld	-6 (ix), #0x80
   01C8 DD 36 FB 00   [19]  450 	ld	-5 (ix), #0x00
                     01CC   451 	C$_fsdiv.c$94$2_0$23	= .
                            452 	.globl	C$_fsdiv.c$94$2_0$23
                            453 ;_fsdiv.c:94: exp++;
   01CC DD 34 E1      [23]  454 	inc	-31 (ix)
   01CF 20 03         [12]  455 	jr	NZ,00178$
   01D1 DD 34 E2      [23]  456 	inc	-30 (ix)
   01D4                     457 00178$:
   01D4                     458 00105$:
                     01D4   459 	C$_fsdiv.c$97$1_0$21	= .
                            460 	.globl	C$_fsdiv.c$97$1_0$21
                            461 ;_fsdiv.c:97: if (exp < 1) /* denormal */
   01D4 DD 7E E1      [19]  462 	ld	a, -31 (ix)
   01D7 D6 01         [ 7]  463 	sub	a, #0x01
   01D9 DD 7E E2      [19]  464 	ld	a, -30 (ix)
   01DC 17            [ 4]  465 	rla
   01DD 3F            [ 4]  466 	ccf
   01DE 1F            [ 4]  467 	rra
   01DF DE 80         [ 7]  468 	sbc	a, #0x80
   01E1 30 08         [12]  469 	jr	NC,00107$
                     01E3   470 	C$_fsdiv.c$98$1_0$21	= .
                            471 	.globl	C$_fsdiv.c$98$1_0$21
                            472 ;_fsdiv.c:98: return (0);
   01E3 21 00 00      [10]  473 	ld	hl,#0x0000
   01E6 5D            [ 4]  474 	ld	e,l
   01E7 54            [ 4]  475 	ld	d,h
   01E8 C3rD3r03      [10]  476 	jp	00118$
   01EB                     477 00107$:
                     01EB   478 	C$_fsdiv.c$100$1_0$21	= .
                            479 	.globl	C$_fsdiv.c$100$1_0$21
                            480 ;_fsdiv.c:100: if (exp >= 255)
   01EB DD 7E E1      [19]  481 	ld	a, -31 (ix)
   01EE D6 FF         [ 7]  482 	sub	a, #0xff
   01F0 DD 7E E2      [19]  483 	ld	a, -30 (ix)
   01F3 17            [ 4]  484 	rla
   01F4 3F            [ 4]  485 	ccf
   01F5 1F            [ 4]  486 	rra
   01F6 DE 80         [ 7]  487 	sbc	a, #0x80
   01F8 38 44         [12]  488 	jr	C,00116$
                     01FA   489 	C$_fsdiv.c$102$2_0$24	= .
                            490 	.globl	C$_fsdiv.c$102$2_0$24
                            491 ;_fsdiv.c:102: fl1.l = sign ? SIGNBIT | __INFINITY : __INFINITY;
   01FA 21 04 00      [10]  492 	ld	hl, #0x0004
   01FD 39            [11]  493 	add	hl, sp
   01FE DD 75 D9      [19]  494 	ld	-39 (ix), l
   0201 DD 74 DA      [19]  495 	ld	-38 (ix), h
   0204 DD 7E ED      [19]  496 	ld	a, -19 (ix)
   0207 B7            [ 4]  497 	or	a, a
   0208 28 12         [12]  498 	jr	Z,00120$
   020A DD 36 DD 00   [19]  499 	ld	-35 (ix), #0x00
   020E DD 36 DE 00   [19]  500 	ld	-34 (ix), #0x00
   0212 DD 36 DF 80   [19]  501 	ld	-33 (ix), #0x80
   0216 DD 36 E0 FF   [19]  502 	ld	-32 (ix), #0xff
   021A 18 10         [12]  503 	jr	00121$
   021C                     504 00120$:
   021C DD 36 DD 00   [19]  505 	ld	-35 (ix), #0x00
   0220 DD 36 DE 00   [19]  506 	ld	-34 (ix), #0x00
   0224 DD 36 DF 80   [19]  507 	ld	-33 (ix), #0x80
   0228 DD 36 E0 7F   [19]  508 	ld	-32 (ix), #0x7f
   022C                     509 00121$:
   022C DD 5E D9      [19]  510 	ld	e, -39 (ix)
   022F DD 56 DA      [19]  511 	ld	d, -38 (ix)
   0232 21 0C 00      [10]  512 	ld	hl, #0x000c
   0235 39            [11]  513 	add	hl, sp
   0236 01 04 00      [10]  514 	ld	bc, #0x0004
   0239 ED B0         [21]  515 	ldir
   023B C3rB2r03      [10]  516 	jp	00117$
   023E                     517 00116$:
                     023E   518 	C$_fsdiv.c$107$2_0$25	= .
                            519 	.globl	C$_fsdiv.c$107$2_0$25
                            520 ;_fsdiv.c:107: result = 0;
   023E 01 00 00      [10]  521 	ld	bc, #0x0000
   0241 11 00 00      [10]  522 	ld	de, #0x0000
                     0244   523 	C$_fsdiv.c$108$2_0$25	= .
                            524 	.globl	C$_fsdiv.c$108$2_0$25
                            525 ;_fsdiv.c:108: do
   0244                     526 00110$:
                     0244   527 	C$_fsdiv.c$110$3_0$26	= .
                            528 	.globl	C$_fsdiv.c$110$3_0$26
                            529 ;_fsdiv.c:110: long diff = mant1 - mant2;
   0244 DD 7E F4      [19]  530 	ld	a, -12 (ix)
   0247 DD 96 F0      [19]  531 	sub	a, -16 (ix)
   024A DD 77 E9      [19]  532 	ld	-23 (ix), a
   024D DD 7E F5      [19]  533 	ld	a, -11 (ix)
   0250 DD 9E F1      [19]  534 	sbc	a, -15 (ix)
   0253 DD 77 EA      [19]  535 	ld	-22 (ix), a
   0256 DD 7E F6      [19]  536 	ld	a, -10 (ix)
   0259 DD 9E F2      [19]  537 	sbc	a, -14 (ix)
   025C DD 77 EB      [19]  538 	ld	-21 (ix), a
   025F DD 7E F7      [19]  539 	ld	a, -9 (ix)
   0262 DD 9E F3      [19]  540 	sbc	a, -13 (ix)
   0265 DD 77 EC      [19]  541 	ld	-20 (ix), a
                     0268   542 	C$_fsdiv.c$111$3_0$26	= .
                            543 	.globl	C$_fsdiv.c$111$3_0$26
                            544 ;_fsdiv.c:111: if (diff >= 0)
   0268 DD CB EC 7E   [20]  545 	bit	7, -20 (ix)
   026C 20 2C         [12]  546 	jr	NZ,00109$
                     026E   547 	C$_fsdiv.c$113$4_0$27	= .
                            548 	.globl	C$_fsdiv.c$113$4_0$27
                            549 ;_fsdiv.c:113: mant1 = diff;
   026E DD 7E E9      [19]  550 	ld	a, -23 (ix)
   0271 DD 77 F4      [19]  551 	ld	-12 (ix), a
   0274 DD 7E EA      [19]  552 	ld	a, -22 (ix)
   0277 DD 77 F5      [19]  553 	ld	-11 (ix), a
   027A DD 7E EB      [19]  554 	ld	a, -21 (ix)
   027D DD 77 F6      [19]  555 	ld	-10 (ix), a
   0280 DD 7E EC      [19]  556 	ld	a, -20 (ix)
   0283 DD 77 F7      [19]  557 	ld	-9 (ix), a
                     0286   558 	C$_fsdiv.c$114$4_0$27	= .
                            559 	.globl	C$_fsdiv.c$114$4_0$27
                            560 ;_fsdiv.c:114: result |= mask;
   0286 79            [ 4]  561 	ld	a, c
   0287 DD B6 F8      [19]  562 	or	a, -8 (ix)
   028A 4F            [ 4]  563 	ld	c, a
   028B 78            [ 4]  564 	ld	a, b
   028C DD B6 F9      [19]  565 	or	a, -7 (ix)
   028F 47            [ 4]  566 	ld	b, a
   0290 7B            [ 4]  567 	ld	a, e
   0291 DD B6 FA      [19]  568 	or	a, -6 (ix)
   0294 5F            [ 4]  569 	ld	e, a
   0295 7A            [ 4]  570 	ld	a, d
   0296 DD B6 FB      [19]  571 	or	a, -5 (ix)
   0299 57            [ 4]  572 	ld	d, a
   029A                     573 00109$:
                     029A   574 	C$_fsdiv.c$116$3_0$26	= .
                            575 	.globl	C$_fsdiv.c$116$3_0$26
                            576 ;_fsdiv.c:116: mant1 <<= 1;
   029A DD CB F4 26   [23]  577 	sla	-12 (ix)
   029E DD CB F5 16   [23]  578 	rl	-11 (ix)
   02A2 DD CB F6 16   [23]  579 	rl	-10 (ix)
   02A6 DD CB F7 16   [23]  580 	rl	-9 (ix)
                     02AA   581 	C$_fsdiv.c$117$3_0$26	= .
                            582 	.globl	C$_fsdiv.c$117$3_0$26
                            583 ;_fsdiv.c:117: mask >>= 1;
   02AA DD CB FB 3E   [23]  584 	srl	-5 (ix)
   02AE DD CB FA 1E   [23]  585 	rr	-6 (ix)
   02B2 DD CB F9 1E   [23]  586 	rr	-7 (ix)
   02B6 DD CB F8 1E   [23]  587 	rr	-8 (ix)
                     02BA   588 	C$_fsdiv.c$119$2_0$25	= .
                            589 	.globl	C$_fsdiv.c$119$2_0$25
                            590 ;_fsdiv.c:119: while (mask);
   02BA DD 7E FB      [19]  591 	ld	a, -5 (ix)
   02BD DD B6 FA      [19]  592 	or	a, -6 (ix)
   02C0 DD B6 F9      [19]  593 	or	a, -7 (ix)
   02C3 DD B6 F8      [19]  594 	or	a, -8 (ix)
   02C6 C2r44r02      [10]  595 	jp	NZ, 00110$
                     02C9   596 	C$_fsdiv.c$122$2_0$25	= .
                            597 	.globl	C$_fsdiv.c$122$2_0$25
                            598 ;_fsdiv.c:122: if (mant1 >= mant2)
   02C9 DD 7E F4      [19]  599 	ld	a, -12 (ix)
   02CC DD 96 F0      [19]  600 	sub	a, -16 (ix)
   02CF DD 7E F5      [19]  601 	ld	a, -11 (ix)
   02D2 DD 9E F1      [19]  602 	sbc	a, -15 (ix)
   02D5 DD 7E F6      [19]  603 	ld	a, -10 (ix)
   02D8 DD 9E F2      [19]  604 	sbc	a, -14 (ix)
   02DB DD 7E F7      [19]  605 	ld	a, -9 (ix)
   02DE DD 9E F3      [19]  606 	sbc	a, -13 (ix)
   02E1 38 07         [12]  607 	jr	C,00114$
                     02E3   608 	C$_fsdiv.c$123$2_0$25	= .
                            609 	.globl	C$_fsdiv.c$123$2_0$25
                            610 ;_fsdiv.c:123: result += 1;
   02E3 0C            [ 4]  611 	inc	c
   02E4 20 04         [12]  612 	jr	NZ,00183$
   02E6 04            [ 4]  613 	inc	b
   02E7 20 01         [12]  614 	jr	NZ,00183$
   02E9 13            [ 6]  615 	inc	de
   02EA                     616 00183$:
   02EA                     617 00114$:
                     02EA   618 	C$_fsdiv.c$125$2_0$25	= .
                            619 	.globl	C$_fsdiv.c$125$2_0$25
                            620 ;_fsdiv.c:125: result &= ~HIDDEN;
   02EA DD 71 FC      [19]  621 	ld	-4 (ix), c
   02ED DD 70 FD      [19]  622 	ld	-3 (ix), b
   02F0 7B            [ 4]  623 	ld	a, e
   02F1 E6 7F         [ 7]  624 	and	a, #0x7f
   02F3 DD 77 FE      [19]  625 	ld	-2 (ix), a
   02F6 DD 72 FF      [19]  626 	ld	-1 (ix), d
                     02F9   627 	C$_fsdiv.c$128$2_0$25	= .
                            628 	.globl	C$_fsdiv.c$128$2_0$25
                            629 ;_fsdiv.c:128: fl1.l = PACK (sign ? SIGNBIT : 0 , exp, result);
   02F9 21 04 00      [10]  630 	ld	hl, #0x0004
   02FC 39            [11]  631 	add	hl, sp
   02FD DD 75 D9      [19]  632 	ld	-39 (ix), l
   0300 DD 74 DA      [19]  633 	ld	-38 (ix), h
   0303 DD 7E ED      [19]  634 	ld	a, -19 (ix)
   0306 B7            [ 4]  635 	or	a, a
   0307 28 12         [12]  636 	jr	Z,00122$
   0309 DD 36 DD 00   [19]  637 	ld	-35 (ix), #0x00
   030D DD 36 DE 00   [19]  638 	ld	-34 (ix), #0x00
   0311 DD 36 DF 00   [19]  639 	ld	-33 (ix), #0x00
   0315 DD 36 E0 80   [19]  640 	ld	-32 (ix), #0x80
   0319 18 0D         [12]  641 	jr	00123$
   031B                     642 00122$:
   031B AF            [ 4]  643 	xor	a, a
   031C DD 77 DD      [19]  644 	ld	-35 (ix), a
   031F DD 77 DE      [19]  645 	ld	-34 (ix), a
   0322 DD 77 DF      [19]  646 	ld	-33 (ix), a
   0325 DD 77 E0      [19]  647 	ld	-32 (ix), a
   0328                     648 00123$:
   0328 DD 4E E1      [19]  649 	ld	c, -31 (ix)
   032B DD 7E E2      [19]  650 	ld	a, -30 (ix)
   032E 47            [ 4]  651 	ld	b, a
   032F 17            [ 4]  652 	rla
   0330 9F            [ 4]  653 	sbc	a, a
   0331 5F            [ 4]  654 	ld	e, a
   0332 57            [ 4]  655 	ld	d, a
   0333 DD 71 E3      [19]  656 	ld	-29 (ix), c
   0336 DD 70 E4      [19]  657 	ld	-28 (ix), b
   0339 DD 36 E1 00   [19]  658 	ld	-31 (ix), #0x00
   033D DD 36 E2 00   [19]  659 	ld	-30 (ix), #0x00
   0341 06 07         [ 7]  660 	ld	b, #0x07
   0343                     661 00184$:
   0343 DD CB E3 26   [23]  662 	sla	-29 (ix)
   0347 DD CB E4 16   [23]  663 	rl	-28 (ix)
   034B 10 F6         [13]  664 	djnz	00184$
   034D DD 7E DD      [19]  665 	ld	a, -35 (ix)
   0350 DD B6 E1      [19]  666 	or	a, -31 (ix)
   0353 DD 77 DD      [19]  667 	ld	-35 (ix), a
   0356 DD 7E DE      [19]  668 	ld	a, -34 (ix)
   0359 DD B6 E2      [19]  669 	or	a, -30 (ix)
   035C DD 77 DE      [19]  670 	ld	-34 (ix), a
   035F DD 7E DF      [19]  671 	ld	a, -33 (ix)
   0362 DD B6 E3      [19]  672 	or	a, -29 (ix)
   0365 DD 77 DF      [19]  673 	ld	-33 (ix), a
   0368 DD 7E E0      [19]  674 	ld	a, -32 (ix)
   036B DD B6 E4      [19]  675 	or	a, -28 (ix)
   036E DD 77 E0      [19]  676 	ld	-32 (ix), a
   0371 21 10 00      [10]  677 	ld	hl, #16
   0374 39            [11]  678 	add	hl, sp
   0375 EB            [ 4]  679 	ex	de, hl
   0376 21 2B 00      [10]  680 	ld	hl, #43
   0379 39            [11]  681 	add	hl, sp
   037A 01 04 00      [10]  682 	ld	bc, #4
   037D ED B0         [21]  683 	ldir
   037F DD 7E DD      [19]  684 	ld	a, -35 (ix)
   0382 DD B6 E1      [19]  685 	or	a, -31 (ix)
   0385 DD 77 DD      [19]  686 	ld	-35 (ix), a
   0388 DD 7E DE      [19]  687 	ld	a, -34 (ix)
   038B DD B6 E2      [19]  688 	or	a, -30 (ix)
   038E DD 77 DE      [19]  689 	ld	-34 (ix), a
   0391 DD 7E DF      [19]  690 	ld	a, -33 (ix)
   0394 DD B6 E3      [19]  691 	or	a, -29 (ix)
   0397 DD 77 DF      [19]  692 	ld	-33 (ix), a
   039A DD 7E E0      [19]  693 	ld	a, -32 (ix)
   039D DD B6 E4      [19]  694 	or	a, -28 (ix)
   03A0 DD 77 E0      [19]  695 	ld	-32 (ix), a
   03A3 DD 5E D9      [19]  696 	ld	e, -39 (ix)
   03A6 DD 56 DA      [19]  697 	ld	d, -38 (ix)
   03A9 21 0C 00      [10]  698 	ld	hl, #0x000c
   03AC 39            [11]  699 	add	hl, sp
   03AD 01 04 00      [10]  700 	ld	bc, #0x0004
   03B0 ED B0         [21]  701 	ldir
   03B2                     702 00117$:
                     03B2   703 	C$_fsdiv.c$130$1_0$21	= .
                            704 	.globl	C$_fsdiv.c$130$1_0$21
                            705 ;_fsdiv.c:130: return (fl1.f);
   03B2 21 04 00      [10]  706 	ld	hl, #0x0004
   03B5 39            [11]  707 	add	hl, sp
   03B6 DD 75 D9      [19]  708 	ld	-39 (ix), l
   03B9 DD 74 DA      [19]  709 	ld	-38 (ix), h
   03BC EB            [ 4]  710 	ex	de,hl
   03BD 21 08 00      [10]  711 	ld	hl, #0x0008
   03C0 39            [11]  712 	add	hl, sp
   03C1 EB            [ 4]  713 	ex	de, hl
   03C2 01 04 00      [10]  714 	ld	bc, #0x0004
   03C5 ED B0         [21]  715 	ldir
   03C7 DD 6E D9      [19]  716 	ld	l, -39 (ix)
   03CA DD 66 DA      [19]  717 	ld	h, -38 (ix)
   03CD DD 5E DB      [19]  718 	ld	e, -37 (ix)
   03D0 DD 56 DC      [19]  719 	ld	d, -36 (ix)
   03D3                     720 00118$:
                     03D3   721 	C$_fsdiv.c$131$1_0$21	= .
                            722 	.globl	C$_fsdiv.c$131$1_0$21
                            723 ;_fsdiv.c:131: }
   03D3 DD F9         [10]  724 	ld	sp, ix
   03D5 DD E1         [14]  725 	pop	ix
                     03D7   726 	C$_fsdiv.c$131$1_0$21	= .
                            727 	.globl	C$_fsdiv.c$131$1_0$21
                     03D7   728 	XF_fsdiv$__fsdiv_org$0$0	= .
                            729 	.globl	XF_fsdiv$__fsdiv_org$0$0
   03D7 C9            [10]  730 	ret
                            731 	.area _CODE
                            732 	.area _INITIALIZER
                            733 	.area _CABS (ABS)
