                              1 ;--------------------------------------------------------
                              2 ; File Created by SDCC : free open source ANSI-C Compiler
                              3 ; Version 3.8.0 #10562 (Linux)
                              4 ;--------------------------------------------------------
                              5 	.module _fsmul
                              6 	.optsdcc -mz80
                              7 	
                              8 ;--------------------------------------------------------
                              9 ; Public variables in this module
                             10 ;--------------------------------------------------------
                             11 	.globl ___fsmul
                             12 ;--------------------------------------------------------
                             13 ; special function registers
                             14 ;--------------------------------------------------------
                             15 ;--------------------------------------------------------
                             16 ; ram data
                             17 ;--------------------------------------------------------
                             18 	.area _DATA
                             19 ;--------------------------------------------------------
                             20 ; ram data
                             21 ;--------------------------------------------------------
                             22 	.area _INITIALIZED
                             23 ;--------------------------------------------------------
                             24 ; absolute external ram data
                             25 ;--------------------------------------------------------
                             26 	.area _DABS (ABS)
                             27 ;--------------------------------------------------------
                             28 ; global & static initialisations
                             29 ;--------------------------------------------------------
                             30 	.area _HOME
                             31 	.area _GSINIT
                             32 	.area _GSFINAL
                             33 	.area _GSINIT
                             34 ;--------------------------------------------------------
                             35 ; Home
                             36 ;--------------------------------------------------------
                             37 	.area _HOME
                     0000    38 	G$__fsmul$0$0	= .
                             39 	.globl	G$__fsmul$0$0
                     0000    40 	C$_fsmul.c$57$0_0$21	= .
                             41 	.globl	C$_fsmul.c$57$0_0$21
                             42 ;_fsmul.c:57: float __fsmul (float a1, float a2) {
                             43 ;	---------------------------------
                             44 ; Function __fsmul
                             45 ; ---------------------------------
   0000                      46 ___fsmul::
   0000 DD E5         [15]   47 	push	ix
   0002 DD 21 00 00   [14]   48 	ld	ix,#0
   0006 DD 39         [15]   49 	add	ix,sp
   0008 21 E7 FF      [10]   50 	ld	hl, #-25
   000B 39            [11]   51 	add	hl, sp
   000C F9            [ 6]   52 	ld	sp, hl
                     000D    53 	C$_fsmul.c$63$1_0$21	= .
                             54 	.globl	C$_fsmul.c$63$1_0$21
                             55 ;_fsmul.c:63: fl1.f = a1;
   000D 21 08 00      [10]   56 	ld	hl, #0x0008
   0010 39            [11]   57 	add	hl, sp
   0011 EB            [ 4]   58 	ex	de, hl
   0012 21 1D 00      [10]   59 	ld	hl, #0x001d
   0015 39            [11]   60 	add	hl, sp
   0016 01 04 00      [10]   61 	ld	bc, #0x0004
   0019 ED B0         [21]   62 	ldir
                     001B    63 	C$_fsmul.c$64$1_0$21	= .
                             64 	.globl	C$_fsmul.c$64$1_0$21
                             65 ;_fsmul.c:64: fl2.f = a2;
   001B 21 04 00      [10]   66 	ld	hl, #0x0004
   001E 39            [11]   67 	add	hl, sp
   001F EB            [ 4]   68 	ex	de, hl
   0020 21 21 00      [10]   69 	ld	hl, #0x0021
   0023 39            [11]   70 	add	hl, sp
   0024 01 04 00      [10]   71 	ld	bc, #0x0004
   0027 ED B0         [21]   72 	ldir
                     0029    73 	C$_fsmul.c$66$1_0$21	= .
                             74 	.globl	C$_fsmul.c$66$1_0$21
                             75 ;_fsmul.c:66: if (!fl1.l || !fl2.l)
   0029 21 08 00      [10]   76 	ld	hl, #0x0008
   002C 39            [11]   77 	add	hl, sp
   002D 4E            [ 7]   78 	ld	c, (hl)
   002E 23            [ 6]   79 	inc	hl
   002F 46            [ 7]   80 	ld	b, (hl)
   0030 23            [ 6]   81 	inc	hl
   0031 7E            [ 7]   82 	ld	a, (hl)
   0032 23            [ 6]   83 	inc	hl
   0033 B6            [ 7]   84 	or	a, (hl)
   0034 B0            [ 4]   85 	or	a, b
   0035 B1            [ 4]   86 	or	a, c
   0036 28 0F         [12]   87 	jr	Z,00101$
   0038 21 04 00      [10]   88 	ld	hl, #0x0004
   003B 39            [11]   89 	add	hl, sp
   003C 4E            [ 7]   90 	ld	c, (hl)
   003D 23            [ 6]   91 	inc	hl
   003E 46            [ 7]   92 	ld	b, (hl)
   003F 23            [ 6]   93 	inc	hl
   0040 7E            [ 7]   94 	ld	a, (hl)
   0041 23            [ 6]   95 	inc	hl
   0042 B6            [ 7]   96 	or	a, (hl)
   0043 B0            [ 4]   97 	or	a, b
   0044 B1            [ 4]   98 	or	a, c
   0045 20 08         [12]   99 	jr	NZ,00102$
   0047                     100 00101$:
                     0047   101 	C$_fsmul.c$67$1_0$21	= .
                            102 	.globl	C$_fsmul.c$67$1_0$21
                            103 ;_fsmul.c:67: return (0);
   0047 21 00 00      [10]  104 	ld	hl,#0x0000
   004A 5D            [ 4]  105 	ld	e,l
   004B 54            [ 4]  106 	ld	d,h
   004C C3rC7r03      [10]  107 	jp	00113$
   004F                     108 00102$:
                     004F   109 	C$_fsmul.c$70$1_0$21	= .
                            110 	.globl	C$_fsmul.c$70$1_0$21
                            111 ;_fsmul.c:70: sign = SIGN (fl1.l) ^ SIGN (fl2.l);
   004F 21 08 00      [10]  112 	ld	hl, #0x0008
   0052 39            [11]  113 	add	hl, sp
   0053 4E            [ 7]  114 	ld	c, (hl)
   0054 23            [ 6]  115 	inc	hl
   0055 46            [ 7]  116 	ld	b, (hl)
   0056 23            [ 6]  117 	inc	hl
   0057 5E            [ 7]  118 	ld	e, (hl)
   0058 23            [ 6]  119 	inc	hl
   0059 7E            [ 7]  120 	ld	a, (hl)
   005A CB 07         [ 8]  121 	rlc	a
   005C E6 01         [ 7]  122 	and	a, #0x01
   005E DD 77 F3      [19]  123 	ld	-13 (ix), a
   0061 21 04 00      [10]  124 	ld	hl, #0x0004
   0064 39            [11]  125 	add	hl, sp
   0065 4E            [ 7]  126 	ld	c, (hl)
   0066 23            [ 6]  127 	inc	hl
   0067 46            [ 7]  128 	ld	b, (hl)
   0068 23            [ 6]  129 	inc	hl
   0069 5E            [ 7]  130 	ld	e, (hl)
   006A 23            [ 6]  131 	inc	hl
   006B 7E            [ 7]  132 	ld	a, (hl)
   006C CB 07         [ 8]  133 	rlc	a
   006E E6 01         [ 7]  134 	and	a, #0x01
   0070 DD AE F3      [19]  135 	xor	a, -13 (ix)
   0073 4F            [ 4]  136 	ld	c, a
                     0074   137 	C$_fsmul.c$71$1_0$21	= .
                            138 	.globl	C$_fsmul.c$71$1_0$21
                            139 ;_fsmul.c:71: exp = EXP (fl1.l) - EXCESS;
   0074 21 08 00      [10]  140 	ld	hl, #0x0008
   0077 39            [11]  141 	add	hl, sp
   0078 5E            [ 7]  142 	ld	e, (hl)
   0079 23            [ 6]  143 	inc	hl
   007A 56            [ 7]  144 	ld	d, (hl)
   007B 23            [ 6]  145 	inc	hl
   007C 23            [ 6]  146 	inc	hl
   007D 7E            [ 7]  147 	ld	a, (hl)
   007E 2B            [ 6]  148 	dec	hl
   007F 6E            [ 7]  149 	ld	l, (hl)
   0080 67            [ 4]  150 	ld	h, a
   0081 06 17         [ 7]  151 	ld	b, #0x17
   0083                     152 00149$:
   0083 CB 3C         [ 8]  153 	srl	h
   0085 CB 1D         [ 8]  154 	rr	l
   0087 CB 1A         [ 8]  155 	rr	d
   0089 CB 1B         [ 8]  156 	rr	e
   008B 10 F6         [13]  157 	djnz	00149$
   008D 06 00         [ 7]  158 	ld	b, #0x00
   008F 7B            [ 4]  159 	ld	a, e
   0090 C6 82         [ 7]  160 	add	a, #0x82
   0092 DD 77 FC      [19]  161 	ld	-4 (ix), a
   0095 78            [ 4]  162 	ld	a, b
   0096 CE FF         [ 7]  163 	adc	a, #0xff
   0098 DD 77 FD      [19]  164 	ld	-3 (ix), a
                     009B   165 	C$_fsmul.c$72$1_0$21	= .
                            166 	.globl	C$_fsmul.c$72$1_0$21
                            167 ;_fsmul.c:72: exp += EXP (fl2.l);
   009B 21 04 00      [10]  168 	ld	hl, #0x0004
   009E 39            [11]  169 	add	hl, sp
   009F 5E            [ 7]  170 	ld	e, (hl)
   00A0 23            [ 6]  171 	inc	hl
   00A1 56            [ 7]  172 	ld	d, (hl)
   00A2 23            [ 6]  173 	inc	hl
   00A3 23            [ 6]  174 	inc	hl
   00A4 7E            [ 7]  175 	ld	a, (hl)
   00A5 2B            [ 6]  176 	dec	hl
   00A6 6E            [ 7]  177 	ld	l, (hl)
   00A7 67            [ 4]  178 	ld	h, a
   00A8 06 17         [ 7]  179 	ld	b, #0x17
   00AA                     180 00151$:
   00AA CB 3C         [ 8]  181 	srl	h
   00AC CB 1D         [ 8]  182 	rr	l
   00AE CB 1A         [ 8]  183 	rr	d
   00B0 CB 1B         [ 8]  184 	rr	e
   00B2 10 F6         [13]  185 	djnz	00151$
   00B4 16 00         [ 7]  186 	ld	d, #0x00
   00B6 DD 6E FC      [19]  187 	ld	l, -4 (ix)
   00B9 DD 66 FD      [19]  188 	ld	h, -3 (ix)
   00BC 19            [11]  189 	add	hl, de
   00BD DD 75 FE      [19]  190 	ld	-2 (ix), l
   00C0 DD 74 FF      [19]  191 	ld	-1 (ix), h
                     00C3   192 	C$_fsmul.c$74$1_0$21	= .
                            193 	.globl	C$_fsmul.c$74$1_0$21
                            194 ;_fsmul.c:74: fl1.l = MANT (fl1.l);
   00C3 21 08 00      [10]  195 	ld	hl, #0x0008
   00C6 39            [11]  196 	add	hl, sp
   00C7 DD 75 FC      [19]  197 	ld	-4 (ix), l
   00CA DD 74 FD      [19]  198 	ld	-3 (ix), h
   00CD 21 08 00      [10]  199 	ld	hl, #0x0008
   00D0 39            [11]  200 	add	hl, sp
   00D1 5E            [ 7]  201 	ld	e, (hl)
   00D2 23            [ 6]  202 	inc	hl
   00D3 56            [ 7]  203 	ld	d, (hl)
   00D4 23            [ 6]  204 	inc	hl
   00D5 23            [ 6]  205 	inc	hl
   00D6 7E            [ 7]  206 	ld	a, (hl)
   00D7 2B            [ 6]  207 	dec	hl
   00D8 6E            [ 7]  208 	ld	l, (hl)
   00D9 06 00         [ 7]  209 	ld	b, #0x00
   00DB DD 73 F4      [19]  210 	ld	-12 (ix), e
   00DE DD 72 F5      [19]  211 	ld	-11 (ix), d
   00E1 7D            [ 4]  212 	ld	a, l
   00E2 F6 80         [ 7]  213 	or	a, #0x80
   00E4 DD 77 F6      [19]  214 	ld	-10 (ix), a
   00E7 DD 70 F7      [19]  215 	ld	-9 (ix), b
   00EA C5            [11]  216 	push	bc
   00EB DD 5E FC      [19]  217 	ld	e, -4 (ix)
   00EE DD 56 FD      [19]  218 	ld	d, -3 (ix)
   00F1 21 0F 00      [10]  219 	ld	hl, #0x000f
   00F4 39            [11]  220 	add	hl, sp
   00F5 01 04 00      [10]  221 	ld	bc, #0x0004
   00F8 ED B0         [21]  222 	ldir
   00FA C1            [10]  223 	pop	bc
                     00FB   224 	C$_fsmul.c$75$1_0$21	= .
                            225 	.globl	C$_fsmul.c$75$1_0$21
                            226 ;_fsmul.c:75: fl2.l = MANT (fl2.l);
   00FB 21 04 00      [10]  227 	ld	hl, #0x0004
   00FE 39            [11]  228 	add	hl, sp
   00FF DD 75 F4      [19]  229 	ld	-12 (ix), l
   0102 DD 74 F5      [19]  230 	ld	-11 (ix), h
   0105 21 04 00      [10]  231 	ld	hl, #0x0004
   0108 39            [11]  232 	add	hl, sp
   0109 5E            [ 7]  233 	ld	e, (hl)
   010A 23            [ 6]  234 	inc	hl
   010B 56            [ 7]  235 	ld	d, (hl)
   010C 23            [ 6]  236 	inc	hl
   010D 23            [ 6]  237 	inc	hl
   010E 7E            [ 7]  238 	ld	a, (hl)
   010F 2B            [ 6]  239 	dec	hl
   0110 6E            [ 7]  240 	ld	l, (hl)
   0111 06 00         [ 7]  241 	ld	b, #0x00
   0113 DD 73 F8      [19]  242 	ld	-8 (ix), e
   0116 DD 72 F9      [19]  243 	ld	-7 (ix), d
   0119 7D            [ 4]  244 	ld	a, l
   011A F6 80         [ 7]  245 	or	a, #0x80
   011C DD 77 FA      [19]  246 	ld	-6 (ix), a
   011F DD 70 FB      [19]  247 	ld	-5 (ix), b
   0122 C5            [11]  248 	push	bc
   0123 DD 5E F4      [19]  249 	ld	e, -12 (ix)
   0126 DD 56 F5      [19]  250 	ld	d, -11 (ix)
   0129 21 13 00      [10]  251 	ld	hl, #0x0013
   012C 39            [11]  252 	add	hl, sp
   012D 01 04 00      [10]  253 	ld	bc, #0x0004
   0130 ED B0         [21]  254 	ldir
   0132 C1            [10]  255 	pop	bc
                     0133   256 	C$_fsmul.c$78$1_0$21	= .
                            257 	.globl	C$_fsmul.c$78$1_0$21
                            258 ;_fsmul.c:78: result = (unsigned long)((unsigned short)(fl1.l >> 8)) * (unsigned short)(fl2.l >> 8);
   0133 21 08 00      [10]  259 	ld	hl, #0x0008
   0136 39            [11]  260 	add	hl, sp
   0137 5E            [ 7]  261 	ld	e, (hl)
   0138 23            [ 6]  262 	inc	hl
   0139 56            [ 7]  263 	ld	d, (hl)
   013A 23            [ 6]  264 	inc	hl
   013B 23            [ 6]  265 	inc	hl
   013C 7E            [ 7]  266 	ld	a, (hl)
   013D 2B            [ 6]  267 	dec	hl
   013E 66            [ 7]  268 	ld	h, (hl)
   013F DD 72 F8      [19]  269 	ld	-8 (ix), d
   0142 DD 74 F9      [19]  270 	ld	-7 (ix), h
   0145 DD 36 FA 00   [19]  271 	ld	-6 (ix), #0x00
   0149 DD 36 FB 00   [19]  272 	ld	-5 (ix), #0x00
   014D 21 06 00      [10]  273 	ld	hl,#0x0004+1+1
   0150 39            [11]  274 	add	hl,sp
   0151 5E            [ 7]  275 	ld	e, (hl)
   0152 23            [ 6]  276 	inc	hl
   0153 56            [ 7]  277 	ld	d, (hl)
   0154 2B            [ 6]  278 	dec	hl
   0155 2B            [ 6]  279 	dec	hl
   0156 7E            [ 7]  280 	ld	a, (hl)
   0157 2B            [ 6]  281 	dec	hl
   0158 6E            [ 7]  282 	ld	l, (hl)
   0159 67            [ 4]  283 	ld	h, a
   015A 53            [ 4]  284 	ld	d, e
   015B 5C            [ 4]  285 	ld	e, h
   015C 21 00 00      [10]  286 	ld	hl, #0x0000
   015F C5            [11]  287 	push	bc
   0160 E5            [11]  288 	push	hl
   0161 D5            [11]  289 	push	de
   0162 DD 6E FA      [19]  290 	ld	l, -6 (ix)
   0165 DD 66 FB      [19]  291 	ld	h, -5 (ix)
   0168 E5            [11]  292 	push	hl
   0169 DD 6E F8      [19]  293 	ld	l, -8 (ix)
   016C DD 66 F9      [19]  294 	ld	h, -7 (ix)
   016F E5            [11]  295 	push	hl
   0170 CDr00r00      [17]  296 	call	__mullong
   0173 F1            [10]  297 	pop	af
   0174 F1            [10]  298 	pop	af
   0175 F1            [10]  299 	pop	af
   0176 F1            [10]  300 	pop	af
   0177 C1            [10]  301 	pop	bc
   0178 DD 75 E7      [19]  302 	ld	-25 (ix), l
   017B DD 74 E8      [19]  303 	ld	-24 (ix), h
   017E DD 73 E9      [19]  304 	ld	-23 (ix), e
   0181 DD 72 EA      [19]  305 	ld	-22 (ix), d
                     0184   306 	C$_fsmul.c$79$1_0$21	= .
                            307 	.globl	C$_fsmul.c$79$1_0$21
                            308 ;_fsmul.c:79: result += ((unsigned long)((unsigned short)(fl1.l & 0xff)) * (unsigned short)(fl2.l >> 8)) >> 8;
   0184 21 08 00      [10]  309 	ld	hl, #0x0008
   0187 39            [11]  310 	add	hl, sp
   0188 5E            [ 7]  311 	ld	e, (hl)
   0189 23            [ 6]  312 	inc	hl
   018A 56            [ 7]  313 	ld	d, (hl)
   018B 23            [ 6]  314 	inc	hl
   018C 46            [ 7]  315 	ld	b, (hl)
   018D 23            [ 6]  316 	inc	hl
   018E 7E            [ 7]  317 	ld	a, (hl)
   018F 16 00         [ 7]  318 	ld	d, #0x00
   0191 DD 73 F8      [19]  319 	ld	-8 (ix), e
   0194 DD 72 F9      [19]  320 	ld	-7 (ix), d
   0197 DD 36 FA 00   [19]  321 	ld	-6 (ix), #0x00
   019B DD 36 FB 00   [19]  322 	ld	-5 (ix), #0x00
   019F 21 06 00      [10]  323 	ld	hl,#0x0004+1+1
   01A2 39            [11]  324 	add	hl,sp
   01A3 5E            [ 7]  325 	ld	e, (hl)
   01A4 23            [ 6]  326 	inc	hl
   01A5 56            [ 7]  327 	ld	d, (hl)
   01A6 2B            [ 6]  328 	dec	hl
   01A7 2B            [ 6]  329 	dec	hl
   01A8 7E            [ 7]  330 	ld	a, (hl)
   01A9 2B            [ 6]  331 	dec	hl
   01AA 6E            [ 7]  332 	ld	l, (hl)
   01AB 67            [ 4]  333 	ld	h, a
   01AC 53            [ 4]  334 	ld	d, e
   01AD 5C            [ 4]  335 	ld	e, h
   01AE 21 00 00      [10]  336 	ld	hl, #0x0000
   01B1 C5            [11]  337 	push	bc
   01B2 E5            [11]  338 	push	hl
   01B3 D5            [11]  339 	push	de
   01B4 DD 6E FA      [19]  340 	ld	l, -6 (ix)
   01B7 DD 66 FB      [19]  341 	ld	h, -5 (ix)
   01BA E5            [11]  342 	push	hl
   01BB DD 6E F8      [19]  343 	ld	l, -8 (ix)
   01BE DD 66 F9      [19]  344 	ld	h, -7 (ix)
   01C1 E5            [11]  345 	push	hl
   01C2 CDr00r00      [17]  346 	call	__mullong
   01C5 F1            [10]  347 	pop	af
   01C6 F1            [10]  348 	pop	af
   01C7 F1            [10]  349 	pop	af
   01C8 F1            [10]  350 	pop	af
   01C9 C1            [10]  351 	pop	bc
   01CA DD 74 F8      [19]  352 	ld	-8 (ix), h
   01CD DD 73 F9      [19]  353 	ld	-7 (ix), e
   01D0 DD 72 FA      [19]  354 	ld	-6 (ix), d
   01D3 DD 36 FB 00   [19]  355 	ld	-5 (ix), #0x00
   01D7 DD 7E E7      [19]  356 	ld	a, -25 (ix)
   01DA DD 86 F8      [19]  357 	add	a, -8 (ix)
   01DD DD 77 E7      [19]  358 	ld	-25 (ix), a
   01E0 DD 7E E8      [19]  359 	ld	a, -24 (ix)
   01E3 DD 8E F9      [19]  360 	adc	a, -7 (ix)
   01E6 DD 77 E8      [19]  361 	ld	-24 (ix), a
   01E9 DD 7E E9      [19]  362 	ld	a, -23 (ix)
   01EC DD 8E FA      [19]  363 	adc	a, -6 (ix)
   01EF DD 77 E9      [19]  364 	ld	-23 (ix), a
   01F2 DD 7E EA      [19]  365 	ld	a, -22 (ix)
   01F5 DD 8E FB      [19]  366 	adc	a, -5 (ix)
   01F8 DD 77 EA      [19]  367 	ld	-22 (ix), a
                     01FB   368 	C$_fsmul.c$80$1_0$21	= .
                            369 	.globl	C$_fsmul.c$80$1_0$21
                            370 ;_fsmul.c:80: result += ((unsigned long)((unsigned short)(fl2.l & 0xff)) * (unsigned short)(fl1.l >> 8)) >> 8;
   01FB 21 04 00      [10]  371 	ld	hl, #0x0004
   01FE 39            [11]  372 	add	hl, sp
   01FF 5E            [ 7]  373 	ld	e, (hl)
   0200 23            [ 6]  374 	inc	hl
   0201 56            [ 7]  375 	ld	d, (hl)
   0202 23            [ 6]  376 	inc	hl
   0203 46            [ 7]  377 	ld	b, (hl)
   0204 23            [ 6]  378 	inc	hl
   0205 7E            [ 7]  379 	ld	a, (hl)
   0206 16 00         [ 7]  380 	ld	d, #0x00
   0208 DD 73 F8      [19]  381 	ld	-8 (ix), e
   020B DD 72 F9      [19]  382 	ld	-7 (ix), d
   020E DD 36 FA 00   [19]  383 	ld	-6 (ix), #0x00
   0212 DD 36 FB 00   [19]  384 	ld	-5 (ix), #0x00
   0216 21 0A 00      [10]  385 	ld	hl,#0x0008+1+1
   0219 39            [11]  386 	add	hl,sp
   021A 5E            [ 7]  387 	ld	e, (hl)
   021B 23            [ 6]  388 	inc	hl
   021C 56            [ 7]  389 	ld	d, (hl)
   021D 2B            [ 6]  390 	dec	hl
   021E 2B            [ 6]  391 	dec	hl
   021F 7E            [ 7]  392 	ld	a, (hl)
   0220 2B            [ 6]  393 	dec	hl
   0221 6E            [ 7]  394 	ld	l, (hl)
   0222 67            [ 4]  395 	ld	h, a
   0223 53            [ 4]  396 	ld	d, e
   0224 5C            [ 4]  397 	ld	e, h
   0225 21 00 00      [10]  398 	ld	hl, #0x0000
   0228 C5            [11]  399 	push	bc
   0229 E5            [11]  400 	push	hl
   022A D5            [11]  401 	push	de
   022B DD 6E FA      [19]  402 	ld	l, -6 (ix)
   022E DD 66 FB      [19]  403 	ld	h, -5 (ix)
   0231 E5            [11]  404 	push	hl
   0232 DD 6E F8      [19]  405 	ld	l, -8 (ix)
   0235 DD 66 F9      [19]  406 	ld	h, -7 (ix)
   0238 E5            [11]  407 	push	hl
   0239 CDr00r00      [17]  408 	call	__mullong
   023C F1            [10]  409 	pop	af
   023D F1            [10]  410 	pop	af
   023E F1            [10]  411 	pop	af
   023F F1            [10]  412 	pop	af
   0240 C1            [10]  413 	pop	bc
   0241 DD 74 F8      [19]  414 	ld	-8 (ix), h
   0244 DD 73 F9      [19]  415 	ld	-7 (ix), e
   0247 DD 72 FA      [19]  416 	ld	-6 (ix), d
   024A DD 36 FB 00   [19]  417 	ld	-5 (ix), #0x00
   024E DD 7E E7      [19]  418 	ld	a, -25 (ix)
   0251 DD 86 F8      [19]  419 	add	a, -8 (ix)
   0254 DD 77 E7      [19]  420 	ld	-25 (ix), a
   0257 DD 7E E8      [19]  421 	ld	a, -24 (ix)
   025A DD 8E F9      [19]  422 	adc	a, -7 (ix)
   025D DD 77 E8      [19]  423 	ld	-24 (ix), a
   0260 DD 7E E9      [19]  424 	ld	a, -23 (ix)
   0263 DD 8E FA      [19]  425 	adc	a, -6 (ix)
   0266 DD 77 E9      [19]  426 	ld	-23 (ix), a
   0269 DD 7E EA      [19]  427 	ld	a, -22 (ix)
   026C DD 8E FB      [19]  428 	adc	a, -5 (ix)
   026F DD 77 EA      [19]  429 	ld	-22 (ix), a
                     0272   430 	C$_fsmul.c$83$1_0$21	= .
                            431 	.globl	C$_fsmul.c$83$1_0$21
                            432 ;_fsmul.c:83: result += 0x40;
   0272 DD 7E E7      [19]  433 	ld	a, -25 (ix)
   0275 C6 40         [ 7]  434 	add	a, #0x40
   0277 DD 77 E7      [19]  435 	ld	-25 (ix), a
   027A DD 7E E8      [19]  436 	ld	a, -24 (ix)
   027D CE 00         [ 7]  437 	adc	a, #0x00
   027F DD 77 E8      [19]  438 	ld	-24 (ix), a
   0282 DD 7E E9      [19]  439 	ld	a, -23 (ix)
   0285 CE 00         [ 7]  440 	adc	a, #0x00
   0287 DD 77 E9      [19]  441 	ld	-23 (ix), a
   028A 30 03         [12]  442 	jr	NC,00165$
   028C DD 34 EA      [23]  443 	inc	-22 (ix)
   028F                     444 00165$:
                     028F   445 	C$_fsmul.c$85$1_0$21	= .
                            446 	.globl	C$_fsmul.c$85$1_0$21
                            447 ;_fsmul.c:85: if (result & SIGNBIT)
   028F DD CB EA 7E   [20]  448 	bit	7, -22 (ix)
   0293 28 33         [12]  449 	jr	Z,00105$
                     0295   450 	C$_fsmul.c$88$2_0$22	= .
                            451 	.globl	C$_fsmul.c$88$2_0$22
                            452 ;_fsmul.c:88: result += 0x40;
   0295 DD 7E E7      [19]  453 	ld	a, -25 (ix)
   0298 C6 40         [ 7]  454 	add	a, #0x40
   029A DD 77 E7      [19]  455 	ld	-25 (ix), a
   029D DD 7E E8      [19]  456 	ld	a, -24 (ix)
   02A0 CE 00         [ 7]  457 	adc	a, #0x00
   02A2 DD 77 E8      [19]  458 	ld	-24 (ix), a
   02A5 DD 7E E9      [19]  459 	ld	a, -23 (ix)
   02A8 CE 00         [ 7]  460 	adc	a, #0x00
   02AA DD 77 E9      [19]  461 	ld	-23 (ix), a
   02AD 30 03         [12]  462 	jr	NC,00167$
   02AF DD 34 EA      [23]  463 	inc	-22 (ix)
   02B2                     464 00167$:
                     02B2   465 	C$_fsmul.c$89$2_0$22	= .
                            466 	.globl	C$_fsmul.c$89$2_0$22
                            467 ;_fsmul.c:89: result >>= 8;
   02B2 06 08         [ 7]  468 	ld	b, #0x08
   02B4                     469 00168$:
   02B4 DD CB EA 3E   [23]  470 	srl	-22 (ix)
   02B8 DD CB E9 1E   [23]  471 	rr	-23 (ix)
   02BC DD CB E8 1E   [23]  472 	rr	-24 (ix)
   02C0 DD CB E7 1E   [23]  473 	rr	-25 (ix)
   02C4 10 EE         [13]  474 	djnz	00168$
   02C6 18 21         [12]  475 	jr	00106$
   02C8                     476 00105$:
                     02C8   477 	C$_fsmul.c$93$2_0$23	= .
                            478 	.globl	C$_fsmul.c$93$2_0$23
                            479 ;_fsmul.c:93: result >>= 7;
   02C8 06 07         [ 7]  480 	ld	b, #0x07
   02CA                     481 00170$:
   02CA DD CB EA 3E   [23]  482 	srl	-22 (ix)
   02CE DD CB E9 1E   [23]  483 	rr	-23 (ix)
   02D2 DD CB E8 1E   [23]  484 	rr	-24 (ix)
   02D6 DD CB E7 1E   [23]  485 	rr	-25 (ix)
   02DA 10 EE         [13]  486 	djnz	00170$
                     02DC   487 	C$_fsmul.c$94$2_0$23	= .
                            488 	.globl	C$_fsmul.c$94$2_0$23
                            489 ;_fsmul.c:94: exp--;
   02DC DD 6E FE      [19]  490 	ld	l, -2 (ix)
   02DF DD 66 FF      [19]  491 	ld	h, -1 (ix)
   02E2 2B            [ 6]  492 	dec	hl
   02E3 DD 75 FE      [19]  493 	ld	-2 (ix), l
   02E6 DD 74 FF      [19]  494 	ld	-1 (ix), h
   02E9                     495 00106$:
                     02E9   496 	C$_fsmul.c$97$1_0$21	= .
                            497 	.globl	C$_fsmul.c$97$1_0$21
                            498 ;_fsmul.c:97: result &= ~HIDDEN;
   02E9 DD 7E E7      [19]  499 	ld	a, -25 (ix)
   02EC DD 77 E7      [19]  500 	ld	-25 (ix), a
   02EF DD 7E E8      [19]  501 	ld	a, -24 (ix)
   02F2 DD 77 E8      [19]  502 	ld	-24 (ix), a
   02F5 DD 7E E9      [19]  503 	ld	a, -23 (ix)
   02F8 E6 7F         [ 7]  504 	and	a, #0x7f
   02FA DD 77 E9      [19]  505 	ld	-23 (ix), a
   02FD DD 7E EA      [19]  506 	ld	a, -22 (ix)
   0300 DD 77 EA      [19]  507 	ld	-22 (ix), a
                     0303   508 	C$_fsmul.c$100$1_0$21	= .
                            509 	.globl	C$_fsmul.c$100$1_0$21
                            510 ;_fsmul.c:100: if (exp >= 0x100)
   0303 DD 7E FF      [19]  511 	ld	a, -1 (ix)
   0306 EE 80         [ 7]  512 	xor	a, #0x80
   0308 D6 81         [ 7]  513 	sub	a, #0x81
   030A 38 26         [12]  514 	jr	C,00111$
                     030C   515 	C$_fsmul.c$101$1_0$21	= .
                            516 	.globl	C$_fsmul.c$101$1_0$21
                            517 ;_fsmul.c:101: fl1.l = (sign ? SIGNBIT : 0) | __INFINITY;
   030C 21 08 00      [10]  518 	ld	hl, #0x0008
   030F 39            [11]  519 	add	hl, sp
   0310 79            [ 4]  520 	ld	a, c
   0311 B7            [ 4]  521 	or	a, a
   0312 28 08         [12]  522 	jr	Z,00115$
   0314 01 00 00      [10]  523 	ld	bc, #0x0000
   0317 11 00 80      [10]  524 	ld	de, #0x8000
   031A 18 06         [12]  525 	jr	00116$
   031C                     526 00115$:
   031C 01 00 00      [10]  527 	ld	bc, #0x0000
   031F 11 00 00      [10]  528 	ld	de, #0x0000
   0322                     529 00116$:
   0322 CB FB         [ 8]  530 	set	7, e
   0324 7A            [ 4]  531 	ld	a, d
   0325 F6 7F         [ 7]  532 	or	a, #0x7f
   0327 57            [ 4]  533 	ld	d, a
   0328 71            [ 7]  534 	ld	(hl), c
   0329 23            [ 6]  535 	inc	hl
   032A 70            [ 7]  536 	ld	(hl), b
   032B 23            [ 6]  537 	inc	hl
   032C 73            [ 7]  538 	ld	(hl), e
   032D 23            [ 6]  539 	inc	hl
   032E 72            [ 7]  540 	ld	(hl), d
   032F C3rBAr03      [10]  541 	jp	00112$
   0332                     542 00111$:
                     0332   543 	C$_fsmul.c$102$1_0$21	= .
                            544 	.globl	C$_fsmul.c$102$1_0$21
                            545 ;_fsmul.c:102: else if (exp < 0)
   0332 DD CB FF 7E   [20]  546 	bit	7, -1 (ix)
   0336 28 0F         [12]  547 	jr	Z,00108$
                     0338   548 	C$_fsmul.c$103$1_0$21	= .
                            549 	.globl	C$_fsmul.c$103$1_0$21
                            550 ;_fsmul.c:103: fl1.l = 0;
   0338 21 08 00      [10]  551 	ld	hl, #0x0008
   033B 39            [11]  552 	add	hl, sp
   033C AF            [ 4]  553 	xor	a, a
   033D 77            [ 7]  554 	ld	(hl), a
   033E 23            [ 6]  555 	inc	hl
   033F 77            [ 7]  556 	ld	(hl), a
   0340 23            [ 6]  557 	inc	hl
   0341 77            [ 7]  558 	ld	(hl), a
   0342 23            [ 6]  559 	inc	hl
   0343 36 00         [10]  560 	ld	(hl), #0x00
   0345 18 73         [12]  561 	jr	00112$
   0347                     562 00108$:
                     0347   563 	C$_fsmul.c$105$1_0$21	= .
                            564 	.globl	C$_fsmul.c$105$1_0$21
                            565 ;_fsmul.c:105: fl1.l = PACK (sign ? SIGNBIT : 0 , exp, result);
   0347 21 08 00      [10]  566 	ld	hl, #0x0008
   034A 39            [11]  567 	add	hl, sp
   034B EB            [ 4]  568 	ex	de, hl
   034C 79            [ 4]  569 	ld	a, c
   034D B7            [ 4]  570 	or	a, a
   034E 28 12         [12]  571 	jr	Z,00117$
   0350 DD 36 F8 00   [19]  572 	ld	-8 (ix), #0x00
   0354 DD 36 F9 00   [19]  573 	ld	-7 (ix), #0x00
   0358 DD 36 FA 00   [19]  574 	ld	-6 (ix), #0x00
   035C DD 36 FB 80   [19]  575 	ld	-5 (ix), #0x80
   0360 18 0D         [12]  576 	jr	00118$
   0362                     577 00117$:
   0362 AF            [ 4]  578 	xor	a, a
   0363 DD 77 F8      [19]  579 	ld	-8 (ix), a
   0366 DD 77 F9      [19]  580 	ld	-7 (ix), a
   0369 DD 77 FA      [19]  581 	ld	-6 (ix), a
   036C DD 77 FB      [19]  582 	ld	-5 (ix), a
   036F                     583 00118$:
   036F DD 6E FE      [19]  584 	ld	l, -2 (ix)
   0372 DD 7E FF      [19]  585 	ld	a, -1 (ix)
   0375 67            [ 4]  586 	ld	h, a
   0376 17            [ 4]  587 	rla
   0377 9F            [ 4]  588 	sbc	a, a
   0378 01 00 00      [10]  589 	ld	bc, #0x0000
   037B 3E 07         [ 7]  590 	ld	a, #0x07
   037D                     591 00172$:
   037D 29            [11]  592 	add	hl, hl
   037E 3D            [ 4]  593 	dec	a
   037F 20 FC         [12]  594 	jr	NZ,00172$
   0381 79            [ 4]  595 	ld	a, c
   0382 DD B6 F8      [19]  596 	or	a, -8 (ix)
   0385 4F            [ 4]  597 	ld	c, a
   0386 78            [ 4]  598 	ld	a, b
   0387 DD B6 F9      [19]  599 	or	a, -7 (ix)
   038A 47            [ 4]  600 	ld	b, a
   038B 7D            [ 4]  601 	ld	a, l
   038C DD B6 FA      [19]  602 	or	a, -6 (ix)
   038F 6F            [ 4]  603 	ld	l, a
   0390 7C            [ 4]  604 	ld	a, h
   0391 DD B6 FB      [19]  605 	or	a, -5 (ix)
   0394 67            [ 4]  606 	ld	h, a
   0395 79            [ 4]  607 	ld	a, c
   0396 DD B6 E7      [19]  608 	or	a, -25 (ix)
   0399 DD 77 F8      [19]  609 	ld	-8 (ix), a
   039C 78            [ 4]  610 	ld	a, b
   039D DD B6 E8      [19]  611 	or	a, -24 (ix)
   03A0 DD 77 F9      [19]  612 	ld	-7 (ix), a
   03A3 7D            [ 4]  613 	ld	a, l
   03A4 DD B6 E9      [19]  614 	or	a, -23 (ix)
   03A7 DD 77 FA      [19]  615 	ld	-6 (ix), a
   03AA 7C            [ 4]  616 	ld	a, h
   03AB DD B6 EA      [19]  617 	or	a, -22 (ix)
   03AE DD 77 FB      [19]  618 	ld	-5 (ix), a
   03B1 21 11 00      [10]  619 	ld	hl, #0x0011
   03B4 39            [11]  620 	add	hl, sp
   03B5 01 04 00      [10]  621 	ld	bc, #0x0004
   03B8 ED B0         [21]  622 	ldir
   03BA                     623 00112$:
                     03BA   624 	C$_fsmul.c$106$1_0$21	= .
                            625 	.globl	C$_fsmul.c$106$1_0$21
                            626 ;_fsmul.c:106: return (fl1.f);
   03BA 21 08 00      [10]  627 	ld	hl, #0x0008
   03BD 39            [11]  628 	add	hl, sp
   03BE 4E            [ 7]  629 	ld	c, (hl)
   03BF 23            [ 6]  630 	inc	hl
   03C0 46            [ 7]  631 	ld	b, (hl)
   03C1 23            [ 6]  632 	inc	hl
   03C2 5E            [ 7]  633 	ld	e, (hl)
   03C3 23            [ 6]  634 	inc	hl
   03C4 56            [ 7]  635 	ld	d, (hl)
   03C5 69            [ 4]  636 	ld	l, c
   03C6 60            [ 4]  637 	ld	h, b
   03C7                     638 00113$:
                     03C7   639 	C$_fsmul.c$107$1_0$21	= .
                            640 	.globl	C$_fsmul.c$107$1_0$21
                            641 ;_fsmul.c:107: }
   03C7 DD F9         [10]  642 	ld	sp, ix
   03C9 DD E1         [14]  643 	pop	ix
                     03CB   644 	C$_fsmul.c$107$1_0$21	= .
                            645 	.globl	C$_fsmul.c$107$1_0$21
                     03CB   646 	XG$__fsmul$0$0	= .
                            647 	.globl	XG$__fsmul$0$0
   03CB C9            [10]  648 	ret
                            649 	.area _HOME
                            650 ;--------------------------------------------------------
                            651 ; code
                            652 ;--------------------------------------------------------
                            653 	.area _CODE
                            654 	.area _CODE
                            655 	.area _INITIALIZER
                            656 	.area _CABS (ABS)
