                              1 ;--------------------------------------------------------
                              2 ; File Created by SDCC : free open source ANSI-C Compiler
                              3 ; Version 3.8.0 #10562 (Linux)
                              4 ;--------------------------------------------------------
                              5 	.module _mullonglong
                              6 	.optsdcc -mz80
                              7 	
                              8 ;--------------------------------------------------------
                              9 ; Public variables in this module
                             10 ;--------------------------------------------------------
                             11 	.globl __mullonglong
                             12 ;--------------------------------------------------------
                             13 ; special function registers
                             14 ;--------------------------------------------------------
                             15 ;--------------------------------------------------------
                             16 ; ram data
                             17 ;--------------------------------------------------------
                             18 	.area _DATA
                             19 ;--------------------------------------------------------
                             20 ; ram data
                             21 ;--------------------------------------------------------
                             22 	.area _INITIALIZED
                             23 ;--------------------------------------------------------
                             24 ; absolute external ram data
                             25 ;--------------------------------------------------------
                             26 	.area _DABS (ABS)
                             27 ;--------------------------------------------------------
                             28 ; global & static initialisations
                             29 ;--------------------------------------------------------
                             30 	.area _HOME
                             31 	.area _GSINIT
                             32 	.area _GSFINAL
                             33 	.area _GSINIT
                             34 ;--------------------------------------------------------
                             35 ; Home
                             36 ;--------------------------------------------------------
                             37 	.area _HOME
                     0000    38 	G$_mullonglong$0$0	= .
                             39 	.globl	G$_mullonglong$0$0
                     0000    40 	C$_mullonglong.c$1$0_0$2	= .
                             41 	.globl	C$_mullonglong.c$1$0_0$2
                             42 ;_mullonglong.c:1: long long _mullonglong(long long ll, long long lr)
                             43 ;	---------------------------------
                             44 ; Function _mullonglong
                             45 ; ---------------------------------
   0000                      46 __mullonglong::
   0000 DD E5         [15]   47 	push	ix
   0002 DD 21 00 00   [14]   48 	ld	ix,#0
   0006 DD 39         [15]   49 	add	ix,sp
   0008 21 EF FF      [10]   50 	ld	hl, #-17
   000B 39            [11]   51 	add	hl, sp
   000C F9            [ 6]   52 	ld	sp, hl
                     000D    53 	C$_mullonglong.c$3$2_0$2	= .
                             54 	.globl	C$_mullonglong.c$3$2_0$2
                             55 ;_mullonglong.c:3: unsigned long long ret = 0ull;
   000D AF            [ 4]   56 	xor	a, a
   000E DD 77 EF      [19]   57 	ld	-17 (ix), a
   0011 DD 77 F0      [19]   58 	ld	-16 (ix), a
   0014 DD 77 F1      [19]   59 	ld	-15 (ix), a
   0017 DD 77 F2      [19]   60 	ld	-14 (ix), a
   001A DD 77 F3      [19]   61 	ld	-13 (ix), a
   001D DD 77 F4      [19]   62 	ld	-12 (ix), a
   0020 DD 77 F5      [19]   63 	ld	-11 (ix), a
   0023 DD 77 F6      [19]   64 	ld	-10 (ix), a
                     0026    65 	C$_mullonglong.c$6$1_0$2	= .
                             66 	.globl	C$_mullonglong.c$6$1_0$2
                             67 ;_mullonglong.c:6: for (i = 0; i < sizeof (long long); i++)
   0026 0E 00         [ 7]   68 	ld	c, #0x00
   0028                      69 00106$:
                     0028    70 	C$_mullonglong.c$8$3_0$4	= .
                             71 	.globl	C$_mullonglong.c$8$3_0$4
                             72 ;_mullonglong.c:8: unsigned char l = ll >> (i * 8);
   0028 79            [ 4]   73 	ld	a, c
   0029 87            [ 4]   74 	add	a, a
   002A 87            [ 4]   75 	add	a, a
   002B 87            [ 4]   76 	add	a, a
   002C 47            [ 4]   77 	ld	b, a
   002D DD 7E 06      [19]   78 	ld	a, 6 (ix)
   0030 DD 77 F7      [19]   79 	ld	-9 (ix), a
   0033 DD 7E 07      [19]   80 	ld	a, 7 (ix)
   0036 DD 77 F8      [19]   81 	ld	-8 (ix), a
   0039 DD 7E 08      [19]   82 	ld	a, 8 (ix)
   003C DD 77 F9      [19]   83 	ld	-7 (ix), a
   003F DD 7E 09      [19]   84 	ld	a, 9 (ix)
   0042 DD 77 FA      [19]   85 	ld	-6 (ix), a
   0045 DD 7E 0A      [19]   86 	ld	a, 10 (ix)
   0048 DD 77 FB      [19]   87 	ld	-5 (ix), a
   004B DD 7E 0B      [19]   88 	ld	a, 11 (ix)
   004E DD 77 FC      [19]   89 	ld	-4 (ix), a
   0051 DD 7E 0C      [19]   90 	ld	a, 12 (ix)
   0054 DD 77 FD      [19]   91 	ld	-3 (ix), a
   0057 DD 7E 0D      [19]   92 	ld	a, 13 (ix)
   005A DD 77 FE      [19]   93 	ld	-2 (ix), a
   005D 04            [ 4]   94 	inc	b
   005E 18 20         [12]   95 	jr	00133$
   0060                      96 00132$:
   0060 DD CB FE 2E   [23]   97 	sra	-2 (ix)
   0064 DD CB FD 1E   [23]   98 	rr	-3 (ix)
   0068 DD CB FC 1E   [23]   99 	rr	-4 (ix)
   006C DD CB FB 1E   [23]  100 	rr	-5 (ix)
   0070 DD CB FA 1E   [23]  101 	rr	-6 (ix)
   0074 DD CB F9 1E   [23]  102 	rr	-7 (ix)
   0078 DD CB F8 1E   [23]  103 	rr	-8 (ix)
   007C DD CB F7 1E   [23]  104 	rr	-9 (ix)
   0080                     105 00133$:
   0080 10 DE         [13]  106 	djnz	00132$
   0082 DD 7E F7      [19]  107 	ld	a, -9 (ix)
   0085 DD 77 FF      [19]  108 	ld	-1 (ix), a
                     0088   109 	C$_mullonglong.c$9$1_0$2	= .
                            110 	.globl	C$_mullonglong.c$9$1_0$2
                            111 ;_mullonglong.c:9: for(j = 0; (i + j) < sizeof (long long); j++)
   0088 1E 00         [ 7]  112 	ld	e, #0x00
   008A                     113 00104$:
   008A 69            [ 4]  114 	ld	l, c
   008B 26 00         [ 7]  115 	ld	h, #0x00
   008D 7B            [ 4]  116 	ld	a, e
   008E 16 00         [ 7]  117 	ld	d, #0x00
   0090 85            [ 4]  118 	add	a, l
   0091 6F            [ 4]  119 	ld	l, a
   0092 7A            [ 4]  120 	ld	a, d
   0093 8C            [ 4]  121 	adc	a, h
   0094 67            [ 4]  122 	ld	h, a
   0095 7D            [ 4]  123 	ld	a, l
   0096 D6 08         [ 7]  124 	sub	a, #0x08
   0098 7C            [ 4]  125 	ld	a, h
   0099 17            [ 4]  126 	rla
   009A 3F            [ 4]  127 	ccf
   009B 1F            [ 4]  128 	rra
   009C DE 80         [ 7]  129 	sbc	a, #0x80
   009E D2rA3r01      [10]  130 	jp	NC, 00107$
                     00A1   131 	C$_mullonglong.c$11$5_0$6	= .
                            132 	.globl	C$_mullonglong.c$11$5_0$6
                            133 ;_mullonglong.c:11: unsigned char r = lr >> (j * 8);
   00A1 7B            [ 4]  134 	ld	a, e
   00A2 87            [ 4]  135 	add	a, a
   00A3 87            [ 4]  136 	add	a, a
   00A4 87            [ 4]  137 	add	a, a
   00A5 47            [ 4]  138 	ld	b, a
   00A6 DD 7E 0E      [19]  139 	ld	a, 14 (ix)
   00A9 DD 77 F7      [19]  140 	ld	-9 (ix), a
   00AC DD 7E 0F      [19]  141 	ld	a, 15 (ix)
   00AF DD 77 F8      [19]  142 	ld	-8 (ix), a
   00B2 DD 7E 10      [19]  143 	ld	a, 16 (ix)
   00B5 DD 77 F9      [19]  144 	ld	-7 (ix), a
   00B8 DD 7E 11      [19]  145 	ld	a, 17 (ix)
   00BB DD 77 FA      [19]  146 	ld	-6 (ix), a
   00BE DD 7E 12      [19]  147 	ld	a, 18 (ix)
   00C1 DD 77 FB      [19]  148 	ld	-5 (ix), a
   00C4 DD 7E 13      [19]  149 	ld	a, 19 (ix)
   00C7 DD 77 FC      [19]  150 	ld	-4 (ix), a
   00CA DD 7E 14      [19]  151 	ld	a, 20 (ix)
   00CD DD 77 FD      [19]  152 	ld	-3 (ix), a
   00D0 DD 7E 15      [19]  153 	ld	a, 21 (ix)
   00D3 DD 77 FE      [19]  154 	ld	-2 (ix), a
   00D6 04            [ 4]  155 	inc	b
   00D7 18 20         [12]  156 	jr	00135$
   00D9                     157 00134$:
   00D9 DD CB FE 2E   [23]  158 	sra	-2 (ix)
   00DD DD CB FD 1E   [23]  159 	rr	-3 (ix)
   00E1 DD CB FC 1E   [23]  160 	rr	-4 (ix)
   00E5 DD CB FB 1E   [23]  161 	rr	-5 (ix)
   00E9 DD CB FA 1E   [23]  162 	rr	-6 (ix)
   00ED DD CB F9 1E   [23]  163 	rr	-7 (ix)
   00F1 DD CB F8 1E   [23]  164 	rr	-8 (ix)
   00F5 DD CB F7 1E   [23]  165 	rr	-9 (ix)
   00F9                     166 00135$:
   00F9 10 DE         [13]  167 	djnz	00134$
   00FB DD 66 F7      [19]  168 	ld	h, -9 (ix)
                     00FE   169 	C$_mullonglong.c$12$5_0$6	= .
                            170 	.globl	C$_mullonglong.c$12$5_0$6
                            171 ;_mullonglong.c:12: ret += (unsigned long long)((unsigned short)(l * r)) << ((i + j) * 8);
   00FE D5            [11]  172 	push	de
   00FF DD 5E FF      [19]  173 	ld	e, -1 (ix)
   0102 2E 00         [ 7]  174 	ld	l, #0x00
   0104 55            [ 4]  175 	ld	d, l
   0105 06 08         [ 7]  176 	ld	b, #0x08
   0107                     177 00136$:
   0107 29            [11]  178 	add	hl, hl
   0108 30 01         [12]  179 	jr	NC,00137$
   010A 19            [11]  180 	add	hl, de
   010B                     181 00137$:
   010B 10 FA         [13]  182 	djnz	00136$
   010D D1            [10]  183 	pop	de
   010E DD 75 F7      [19]  184 	ld	-9 (ix), l
   0111 DD 74 F8      [19]  185 	ld	-8 (ix), h
   0114 DD 36 F9 00   [19]  186 	ld	-7 (ix), #0x00
   0118 DD 36 FA 00   [19]  187 	ld	-6 (ix), #0x00
   011C DD 36 FB 00   [19]  188 	ld	-5 (ix), #0x00
   0120 DD 36 FC 00   [19]  189 	ld	-4 (ix), #0x00
   0124 DD 36 FD 00   [19]  190 	ld	-3 (ix), #0x00
   0128 DD 36 FE 00   [19]  191 	ld	-2 (ix), #0x00
   012C 79            [ 4]  192 	ld	a, c
   012D 83            [ 4]  193 	add	a, e
   012E 87            [ 4]  194 	add	a, a
   012F 87            [ 4]  195 	add	a, a
   0130 87            [ 4]  196 	add	a, a
   0131 47            [ 4]  197 	ld	b, a
   0132 04            [ 4]  198 	inc	b
   0133 18 20         [12]  199 	jr	00139$
   0135                     200 00138$:
   0135 DD CB F7 26   [23]  201 	sla	-9 (ix)
   0139 DD CB F8 16   [23]  202 	rl	-8 (ix)
   013D DD CB F9 16   [23]  203 	rl	-7 (ix)
   0141 DD CB FA 16   [23]  204 	rl	-6 (ix)
   0145 DD CB FB 16   [23]  205 	rl	-5 (ix)
   0149 DD CB FC 16   [23]  206 	rl	-4 (ix)
   014D DD CB FD 16   [23]  207 	rl	-3 (ix)
   0151 DD CB FE 16   [23]  208 	rl	-2 (ix)
   0155                     209 00139$:
   0155 10 DE         [13]  210 	djnz	00138$
   0157 DD 7E EF      [19]  211 	ld	a, -17 (ix)
   015A DD 86 F7      [19]  212 	add	a, -9 (ix)
   015D DD 77 EF      [19]  213 	ld	-17 (ix), a
   0160 DD 7E F0      [19]  214 	ld	a, -16 (ix)
   0163 DD 8E F8      [19]  215 	adc	a, -8 (ix)
   0166 DD 77 F0      [19]  216 	ld	-16 (ix), a
   0169 DD 7E F1      [19]  217 	ld	a, -15 (ix)
   016C DD 8E F9      [19]  218 	adc	a, -7 (ix)
   016F DD 77 F1      [19]  219 	ld	-15 (ix), a
   0172 DD 7E F2      [19]  220 	ld	a, -14 (ix)
   0175 DD 8E FA      [19]  221 	adc	a, -6 (ix)
   0178 DD 77 F2      [19]  222 	ld	-14 (ix), a
   017B DD 7E F3      [19]  223 	ld	a, -13 (ix)
   017E DD 8E FB      [19]  224 	adc	a, -5 (ix)
   0181 DD 77 F3      [19]  225 	ld	-13 (ix), a
   0184 DD 7E F4      [19]  226 	ld	a, -12 (ix)
   0187 DD 8E FC      [19]  227 	adc	a, -4 (ix)
   018A DD 77 F4      [19]  228 	ld	-12 (ix), a
   018D DD 7E F5      [19]  229 	ld	a, -11 (ix)
   0190 DD 8E FD      [19]  230 	adc	a, -3 (ix)
   0193 DD 77 F5      [19]  231 	ld	-11 (ix), a
   0196 DD 7E F6      [19]  232 	ld	a, -10 (ix)
   0199 DD 8E FE      [19]  233 	adc	a, -2 (ix)
   019C DD 77 F6      [19]  234 	ld	-10 (ix), a
                     019F   235 	C$_mullonglong.c$9$4_0$5	= .
                            236 	.globl	C$_mullonglong.c$9$4_0$5
                            237 ;_mullonglong.c:9: for(j = 0; (i + j) < sizeof (long long); j++)
   019F 1C            [ 4]  238 	inc	e
   01A0 C3r8Ar00      [10]  239 	jp	00104$
   01A3                     240 00107$:
                     01A3   241 	C$_mullonglong.c$6$2_0$3	= .
                            242 	.globl	C$_mullonglong.c$6$2_0$3
                            243 ;_mullonglong.c:6: for (i = 0; i < sizeof (long long); i++)
   01A3 0C            [ 4]  244 	inc	c
   01A4 79            [ 4]  245 	ld	a, c
   01A5 D6 08         [ 7]  246 	sub	a, #0x08
   01A7 DAr28r00      [10]  247 	jp	C, 00106$
                     01AA   248 	C$_mullonglong.c$16$1_0$2	= .
                            249 	.globl	C$_mullonglong.c$16$1_0$2
                            250 ;_mullonglong.c:16: return(ret);
   01AA 21 15 00      [10]  251 	ld	hl,#21
   01AD 39            [11]  252 	add	hl,sp
   01AE 5E            [ 7]  253 	ld	e, (hl)
   01AF 23            [ 6]  254 	inc	hl
   01B0 56            [ 7]  255 	ld	d, (hl)
   01B1 21 00 00      [10]  256 	ld	hl, #0
   01B4 39            [11]  257 	add	hl, sp
   01B5 01 08 00      [10]  258 	ld	bc, #8
   01B8 ED B0         [21]  259 	ldir
                     01BA   260 	C$_mullonglong.c$17$1_0$2	= .
                            261 	.globl	C$_mullonglong.c$17$1_0$2
                            262 ;_mullonglong.c:17: }
   01BA DD F9         [10]  263 	ld	sp, ix
   01BC DD E1         [14]  264 	pop	ix
                     01BE   265 	C$_mullonglong.c$17$1_0$2	= .
                            266 	.globl	C$_mullonglong.c$17$1_0$2
                     01BE   267 	XG$_mullonglong$0$0	= .
                            268 	.globl	XG$_mullonglong$0$0
   01BE C9            [10]  269 	ret
                            270 	.area _HOME
                            271 ;--------------------------------------------------------
                            272 ; code
                            273 ;--------------------------------------------------------
                            274 	.area _CODE
                            275 	.area _CODE
                            276 	.area _INITIALIZER
                            277 	.area _CABS (ABS)
